
geekos/kernel.exe:     file format elf32-i386


Disassembly of section .text:

00010000 <Init_Interrupt_Gate>:
   10000:	55                   	push   %ebp
   10001:	89 e5                	mov    %esp,%ebp
   10003:	53                   	push   %ebx
   10004:	8b 45 08             	mov    0x8(%ebp),%eax
   10007:	8b 55 0c             	mov    0xc(%ebp),%edx
   1000a:	66 89 10             	mov    %dx,(%eax)
   1000d:	66 c7 40 02 08 00    	movw   $0x8,0x2(%eax)
   10013:	80 60 04 e0          	andb   $0xe0,0x4(%eax)
   10017:	0f b7 48 04          	movzwl 0x4(%eax),%ecx
   1001b:	66 81 e1 1f e0       	and    $0xe01f,%cx
   10020:	80 cd 0e             	or     $0xe,%ch
   10023:	66 89 48 04          	mov    %cx,0x4(%eax)
   10027:	8b 5d 10             	mov    0x10(%ebp),%ebx
   1002a:	83 e3 03             	and    $0x3,%ebx
   1002d:	c1 e3 05             	shl    $0x5,%ebx
   10030:	66 c1 e9 08          	shr    $0x8,%cx
   10034:	83 e1 9f             	and    $0xffffff9f,%ecx
   10037:	09 d9                	or     %ebx,%ecx
   10039:	83 c9 80             	or     $0xffffff80,%ecx
   1003c:	88 48 05             	mov    %cl,0x5(%eax)
   1003f:	c1 ea 10             	shr    $0x10,%edx
   10042:	66 89 50 06          	mov    %dx,0x6(%eax)
   10046:	5b                   	pop    %ebx
   10047:	5d                   	pop    %ebp
   10048:	c3                   	ret    

00010049 <Install_Interrupt_Handler>:
   10049:	55                   	push   %ebp
   1004a:	89 e5                	mov    %esp,%ebp
   1004c:	83 ec 28             	sub    $0x28,%esp
   1004f:	8b 45 08             	mov    0x8(%ebp),%eax
   10052:	3d ff 00 00 00       	cmp    $0xff,%eax
   10057:	76 4a                	jbe    100a3 <Install_Interrupt_Handler+0x5a>
   10059:	c7 04 24 4f 00 00 00 	movl   $0x4f,(%esp)
   10060:	e8 8e 10 00 00       	call   110f3 <Set_Current_Attr>
   10065:	a1 d0 07 02 00       	mov    0x207d0,%eax
   1006a:	89 44 24 18          	mov    %eax,0x18(%esp)
   1006e:	8b 45 04             	mov    0x4(%ebp),%eax
   10071:	89 44 24 14          	mov    %eax,0x14(%esp)
   10075:	c7 44 24 10 75 00 00 	movl   $0x75,0x10(%esp)
   1007c:	00 
   1007d:	c7 44 24 0c c0 cb 01 	movl   $0x1cbc0,0xc(%esp)
   10084:	00 
   10085:	c7 44 24 08 ec cb 01 	movl   $0x1cbec,0x8(%esp)
   1008c:	00 
   1008d:	c7 44 24 04 de cc 01 	movl   $0x1ccde,0x4(%esp)
   10094:	00 
   10095:	c7 04 24 1c cc 01 00 	movl   $0x1cc1c,(%esp)
   1009c:	e8 1b 0f 00 00       	call   10fbc <Print>
   100a1:	eb fe                	jmp    100a1 <Install_Interrupt_Handler+0x58>
   100a3:	8b 55 0c             	mov    0xc(%ebp),%edx
   100a6:	89 14 85 c0 03 02 00 	mov    %edx,0x203c0(,%eax,4)
   100ad:	c9                   	leave  
   100ae:	c3                   	ret    

000100af <Init_IDT>:
   100af:	55                   	push   %ebp
   100b0:	89 e5                	mov    %esp,%ebp
   100b2:	57                   	push   %edi
   100b3:	56                   	push   %esi
   100b4:	53                   	push   %ebx
   100b5:	83 ec 3c             	sub    $0x3c,%esp
   100b8:	c7 04 24 d4 cb 01 00 	movl   $0x1cbd4,(%esp)
   100bf:	e8 f8 0e 00 00       	call   10fbc <Print>
   100c4:	a1 20 f1 01 00       	mov    0x1f120,%eax
   100c9:	3b 05 24 f1 01 00    	cmp    0x1f124,%eax
   100cf:	74 4a                	je     1011b <Init_IDT+0x6c>
   100d1:	c7 04 24 4f 00 00 00 	movl   $0x4f,(%esp)
   100d8:	e8 16 10 00 00       	call   110f3 <Set_Current_Attr>
   100dd:	a1 d0 07 02 00       	mov    0x207d0,%eax
   100e2:	89 44 24 18          	mov    %eax,0x18(%esp)
   100e6:	8b 45 04             	mov    0x4(%ebp),%eax
   100e9:	89 44 24 14          	mov    %eax,0x14(%esp)
   100ed:	c7 44 24 10 3d 00 00 	movl   $0x3d,0x10(%esp)
   100f4:	00 
   100f5:	c7 44 24 0c c0 cb 01 	movl   $0x1cbc0,0xc(%esp)
   100fc:	00 
   100fd:	c7 44 24 08 5c cc 01 	movl   $0x1cc5c,0x8(%esp)
   10104:	00 
   10105:	c7 44 24 04 f8 cc 01 	movl   $0x1ccf8,0x4(%esp)
   1010c:	00 
   1010d:	c7 04 24 1c cc 01 00 	movl   $0x1cc1c,(%esp)
   10114:	e8 a3 0e 00 00       	call   10fbc <Print>
   10119:	eb fe                	jmp    10119 <Init_IDT+0x6a>
   1011b:	c1 e0 08             	shl    $0x8,%eax
   1011e:	ba 88 be 01 00       	mov    $0x1be88,%edx
   10123:	81 ea 88 ae 01 00    	sub    $0x1ae88,%edx
   10129:	39 d0                	cmp    %edx,%eax
   1012b:	74 4a                	je     10177 <Init_IDT+0xc8>
   1012d:	c7 04 24 4f 00 00 00 	movl   $0x4f,(%esp)
   10134:	e8 ba 0f 00 00       	call   110f3 <Set_Current_Attr>
   10139:	a1 d0 07 02 00       	mov    0x207d0,%eax
   1013e:	89 44 24 18          	mov    %eax,0x18(%esp)
   10142:	8b 45 04             	mov    0x4(%ebp),%eax
   10145:	89 44 24 14          	mov    %eax,0x14(%esp)
   10149:	c7 44 24 10 3f 00 00 	movl   $0x3f,0x10(%esp)
   10150:	00 
   10151:	c7 44 24 0c c0 cb 01 	movl   $0x1cbc0,0xc(%esp)
   10158:	00 
   10159:	c7 44 24 08 84 cc 01 	movl   $0x1cc84,0x8(%esp)
   10160:	00 
   10161:	c7 44 24 04 f8 cc 01 	movl   $0x1ccf8,0x4(%esp)
   10168:	00 
   10169:	c7 04 24 1c cc 01 00 	movl   $0x1cc1c,(%esp)
   10170:	e8 47 0e 00 00       	call   10fbc <Print>
   10175:	eb fe                	jmp    10175 <Init_IDT+0xc6>
   10177:	bf 40 f1 01 00       	mov    $0x1f140,%edi
   1017c:	be 88 ae 01 00       	mov    $0x1ae88,%esi
   10181:	bb 01 00 00 00       	mov    $0x1,%ebx
   10186:	eb 06                	jmp    1018e <Init_IDT+0xdf>
   10188:	83 c3 01             	add    $0x1,%ebx
   1018b:	83 c7 08             	add    $0x8,%edi
   1018e:	81 fb 91 00 00 00    	cmp    $0x91,%ebx
   10194:	74 4e                	je     101e4 <Init_IDT+0x135>
   10196:	c7 44 24 08 00 00 00 	movl   $0x0,0x8(%esp)
   1019d:	00 
   1019e:	89 74 24 04          	mov    %esi,0x4(%esp)
   101a2:	89 3c 24             	mov    %edi,(%esp)
   101a5:	e8 56 fe ff ff       	call   10000 <Init_Interrupt_Gate>
   101aa:	a1 20 f1 01 00       	mov    0x1f120,%eax
   101af:	81 fb ff 00 00 00    	cmp    $0xff,%ebx
   101b5:	7f 04                	jg     101bb <Init_IDT+0x10c>
   101b7:	01 c6                	add    %eax,%esi
   101b9:	eb cd                	jmp    10188 <Init_IDT+0xd9>
   101bb:	66 c7 45 e2 00 08    	movw   $0x800,-0x1e(%ebp)
   101c1:	b8 40 f1 01 00       	mov    $0x1f140,%eax
   101c6:	66 89 45 e4          	mov    %ax,-0x1c(%ebp)
   101ca:	c1 e8 10             	shr    $0x10,%eax
   101cd:	66 89 45 e6          	mov    %ax,-0x1a(%ebp)
   101d1:	8d 45 e2             	lea    -0x1e(%ebp),%eax
   101d4:	89 04 24             	mov    %eax,(%esp)
   101d7:	e8 74 ab 00 00       	call   1ad50 <Load_IDTR>
   101dc:	83 c4 3c             	add    $0x3c,%esp
   101df:	5b                   	pop    %ebx
   101e0:	5e                   	pop    %esi
   101e1:	5f                   	pop    %edi
   101e2:	5d                   	pop    %ebp
   101e3:	c3                   	ret    
   101e4:	c7 44 24 08 03 00 00 	movl   $0x3,0x8(%esp)
   101eb:	00 
   101ec:	89 74 24 04          	mov    %esi,0x4(%esp)
   101f0:	89 3c 24             	mov    %edi,(%esp)
   101f3:	e8 08 fe ff ff       	call   10000 <Init_Interrupt_Gate>
   101f8:	03 35 20 f1 01 00    	add    0x1f120,%esi
   101fe:	eb 88                	jmp    10188 <Init_IDT+0xd9>

00010200 <Print_Selector>:
   10200:	55                   	push   %ebp
   10201:	89 e5                	mov    %esp,%ebp
   10203:	83 ec 28             	sub    $0x28,%esp
   10206:	89 d1                	mov    %edx,%ecx
   10208:	83 e1 03             	and    $0x3,%ecx
   1020b:	89 4c 24 10          	mov    %ecx,0x10(%esp)
   1020f:	89 d1                	mov    %edx,%ecx
   10211:	c1 e9 02             	shr    $0x2,%ecx
   10214:	83 e1 01             	and    $0x1,%ecx
   10217:	89 4c 24 0c          	mov    %ecx,0xc(%esp)
   1021b:	c1 ea 03             	shr    $0x3,%edx
   1021e:	89 54 24 08          	mov    %edx,0x8(%esp)
   10222:	89 44 24 04          	mov    %eax,0x4(%esp)
   10226:	c7 04 24 01 cd 01 00 	movl   $0x1cd01,(%esp)
   1022d:	e8 8a 0d 00 00       	call   10fbc <Print>
   10232:	c9                   	leave  
   10233:	c3                   	ret    

00010234 <Dump_Interrupt_State>:
   10234:	55                   	push   %ebp
   10235:	89 e5                	mov    %esp,%ebp
   10237:	53                   	push   %ebx
   10238:	83 ec 54             	sub    $0x54,%esp
   1023b:	8b 5d 08             	mov    0x8(%ebp),%ebx
   1023e:	8b 43 30             	mov    0x30(%ebx),%eax
   10241:	89 c2                	mov    %eax,%edx
   10243:	83 e2 01             	and    $0x1,%edx
   10246:	89 54 24 40          	mov    %edx,0x40(%esp)
   1024a:	89 c2                	mov    %eax,%edx
   1024c:	d1 ea                	shr    %edx
   1024e:	83 e2 01             	and    $0x1,%edx
   10251:	89 54 24 3c          	mov    %edx,0x3c(%esp)
   10255:	89 c2                	mov    %eax,%edx
   10257:	c1 ea 02             	shr    $0x2,%edx
   1025a:	83 e2 01             	and    $0x1,%edx
   1025d:	89 54 24 38          	mov    %edx,0x38(%esp)
   10261:	89 c2                	mov    %eax,%edx
   10263:	c1 ea 03             	shr    $0x3,%edx
   10266:	89 54 24 34          	mov    %edx,0x34(%esp)
   1026a:	89 44 24 30          	mov    %eax,0x30(%esp)
   1026e:	8b 43 2c             	mov    0x2c(%ebx),%eax
   10271:	89 44 24 2c          	mov    %eax,0x2c(%esp)
   10275:	8b 43 3c             	mov    0x3c(%ebx),%eax
   10278:	89 44 24 28          	mov    %eax,0x28(%esp)
   1027c:	8b 43 38             	mov    0x38(%ebx),%eax
   1027f:	89 44 24 24          	mov    %eax,0x24(%esp)
   10283:	8b 43 34             	mov    0x34(%ebx),%eax
   10286:	89 44 24 20          	mov    %eax,0x20(%esp)
   1028a:	8b 43 10             	mov    0x10(%ebx),%eax
   1028d:	89 44 24 1c          	mov    %eax,0x1c(%esp)
   10291:	8b 43 14             	mov    0x14(%ebx),%eax
   10294:	89 44 24 18          	mov    %eax,0x18(%esp)
   10298:	8b 43 18             	mov    0x18(%ebx),%eax
   1029b:	89 44 24 14          	mov    %eax,0x14(%esp)
   1029f:	8b 43 1c             	mov    0x1c(%ebx),%eax
   102a2:	89 44 24 10          	mov    %eax,0x10(%esp)
   102a6:	8b 43 20             	mov    0x20(%ebx),%eax
   102a9:	89 44 24 0c          	mov    %eax,0xc(%esp)
   102ad:	8b 43 24             	mov    0x24(%ebx),%eax
   102b0:	89 44 24 08          	mov    %eax,0x8(%esp)
   102b4:	8b 43 28             	mov    0x28(%ebx),%eax
   102b7:	89 44 24 04          	mov    %eax,0x4(%esp)
   102bb:	c7 04 24 74 cd 01 00 	movl   $0x1cd74,(%esp)
   102c2:	e8 f5 0c 00 00       	call   10fbc <Print>
   102c7:	8b 43 38             	mov    0x38(%ebx),%eax
   102ca:	83 e0 03             	and    $0x3,%eax
   102cd:	83 f8 03             	cmp    $0x3,%eax
   102d0:	75 1a                	jne    102ec <Dump_Interrupt_State+0xb8>
   102d2:	8b 43 44             	mov    0x44(%ebx),%eax
   102d5:	89 44 24 08          	mov    %eax,0x8(%esp)
   102d9:	8b 43 40             	mov    0x40(%ebx),%eax
   102dc:	89 44 24 04          	mov    %eax,0x4(%esp)
   102e0:	c7 04 24 1e cd 01 00 	movl   $0x1cd1e,(%esp)
   102e7:	e8 d0 0c 00 00       	call   10fbc <Print>
   102ec:	8b 53 38             	mov    0x38(%ebx),%edx
   102ef:	b8 3b cd 01 00       	mov    $0x1cd3b,%eax
   102f4:	e8 07 ff ff ff       	call   10200 <Print_Selector>
   102f9:	8b 53 0c             	mov    0xc(%ebx),%edx
   102fc:	b8 3e cd 01 00       	mov    $0x1cd3e,%eax
   10301:	e8 fa fe ff ff       	call   10200 <Print_Selector>
   10306:	8b 53 08             	mov    0x8(%ebx),%edx
   10309:	b8 41 cd 01 00       	mov    $0x1cd41,%eax
   1030e:	e8 ed fe ff ff       	call   10200 <Print_Selector>
   10313:	8b 53 04             	mov    0x4(%ebx),%edx
   10316:	b8 44 cd 01 00       	mov    $0x1cd44,%eax
   1031b:	e8 e0 fe ff ff       	call   10200 <Print_Selector>
   10320:	8b 13                	mov    (%ebx),%edx
   10322:	b8 47 cd 01 00       	mov    $0x1cd47,%eax
   10327:	e8 d4 fe ff ff       	call   10200 <Print_Selector>
   1032c:	83 c4 54             	add    $0x54,%esp
   1032f:	5b                   	pop    %ebx
   10330:	5d                   	pop    %ebp
   10331:	c3                   	ret    

00010332 <Dummy_Interrupt_Handler>:
   10332:	55                   	push   %ebp
   10333:	89 e5                	mov    %esp,%ebp
   10335:	83 ec 18             	sub    $0x18,%esp
   10338:	c7 04 24 14 ce 01 00 	movl   $0x1ce14,(%esp)
   1033f:	e8 78 0c 00 00       	call   10fbc <Print>
   10344:	8b 45 08             	mov    0x8(%ebp),%eax
   10347:	89 04 24             	mov    %eax,(%esp)
   1034a:	e8 e5 fe ff ff       	call   10234 <Dump_Interrupt_State>
   1034f:	eb fe                	jmp    1034f <Dummy_Interrupt_Handler+0x1d>

00010351 <Interrupts_Enabled>:
   10351:	55                   	push   %ebp
   10352:	89 e5                	mov    %esp,%ebp
   10354:	83 ec 08             	sub    $0x8,%esp
   10357:	e8 24 ab 00 00       	call   1ae80 <Get_Current_EFLAGS>
   1035c:	c1 e8 09             	shr    $0x9,%eax
   1035f:	83 e0 01             	and    $0x1,%eax
   10362:	c9                   	leave  
   10363:	c3                   	ret    

00010364 <Init_Interrupts>:
   10364:	55                   	push   %ebp
   10365:	89 e5                	mov    %esp,%ebp
   10367:	53                   	push   %ebx
   10368:	83 ec 24             	sub    $0x24,%esp
   1036b:	e8 3f fd ff ff       	call   100af <Init_IDT>
   10370:	bb 00 00 00 00       	mov    $0x0,%ebx
   10375:	c7 44 24 04 32 03 01 	movl   $0x10332,0x4(%esp)
   1037c:	00 
   1037d:	89 1c 24             	mov    %ebx,(%esp)
   10380:	e8 c4 fc ff ff       	call   10049 <Install_Interrupt_Handler>
   10385:	83 c3 01             	add    $0x1,%ebx
   10388:	81 fb 00 01 00 00    	cmp    $0x100,%ebx
   1038e:	75 e5                	jne    10375 <Init_Interrupts+0x11>
   10390:	e8 bc ff ff ff       	call   10351 <Interrupts_Enabled>
   10395:	84 c0                	test   %al,%al
   10397:	74 4a                	je     103e3 <Init_Interrupts+0x7f>
   10399:	c7 04 24 4f 00 00 00 	movl   $0x4f,(%esp)
   103a0:	e8 4e 0d 00 00       	call   110f3 <Set_Current_Attr>
   103a5:	a1 d0 07 02 00       	mov    0x207d0,%eax
   103aa:	89 44 24 18          	mov    %eax,0x18(%esp)
   103ae:	8b 45 04             	mov    0x4(%ebp),%eax
   103b1:	89 44 24 14          	mov    %eax,0x14(%esp)
   103b5:	c7 44 24 10 41 00 00 	movl   $0x41,0x10(%esp)
   103bc:	00 
   103bd:	c7 44 24 0c 4a cd 01 	movl   $0x1cd4a,0xc(%esp)
   103c4:	00 
   103c5:	c7 44 24 08 5e cd 01 	movl   $0x1cd5e,0x8(%esp)
   103cc:	00 
   103cd:	c7 44 24 04 33 ce 01 	movl   $0x1ce33,0x4(%esp)
   103d4:	00 
   103d5:	c7 04 24 1c cc 01 00 	movl   $0x1cc1c,(%esp)
   103dc:	e8 db 0b 00 00       	call   10fbc <Print>
   103e1:	eb fe                	jmp    103e1 <Init_Interrupts+0x7d>
   103e3:	fb                   	sti    
   103e4:	83 c4 24             	add    $0x24,%esp
   103e7:	5b                   	pop    %ebx
   103e8:	5d                   	pop    %ebp
   103e9:	c3                   	ret    
   103ea:	90                   	nop
   103eb:	90                   	nop

000103ec <Init_Traps>:
   103ec:	55                   	push   %ebp
   103ed:	89 e5                	mov    %esp,%ebp
   103ef:	83 ec 18             	sub    $0x18,%esp
   103f2:	c7 44 24 04 1c 04 01 	movl   $0x1041c,0x4(%esp)
   103f9:	00 
   103fa:	c7 04 24 0c 00 00 00 	movl   $0xc,(%esp)
   10401:	e8 43 fc ff ff       	call   10049 <Install_Interrupt_Handler>
   10406:	c7 44 24 04 1c 04 01 	movl   $0x1041c,0x4(%esp)
   1040d:	00 
   1040e:	c7 04 24 0d 00 00 00 	movl   $0xd,(%esp)
   10415:	e8 2f fc ff ff       	call   10049 <Install_Interrupt_Handler>
   1041a:	c9                   	leave  
   1041b:	c3                   	ret    

0001041c <GPF_Handler>:
   1041c:	55                   	push   %ebp
   1041d:	89 e5                	mov    %esp,%ebp
   1041f:	53                   	push   %ebx
   10420:	83 ec 14             	sub    $0x14,%esp
   10423:	8b 5d 08             	mov    0x8(%ebp),%ebx
   10426:	a1 d0 07 02 00       	mov    0x207d0,%eax
   1042b:	89 44 24 08          	mov    %eax,0x8(%esp)
   1042f:	8b 43 2c             	mov    0x2c(%ebx),%eax
   10432:	89 44 24 04          	mov    %eax,0x4(%esp)
   10436:	c7 04 24 44 ce 01 00 	movl   $0x1ce44,(%esp)
   1043d:	e8 7a 0b 00 00       	call   10fbc <Print>
   10442:	89 1c 24             	mov    %ebx,(%esp)
   10445:	e8 ea fd ff ff       	call   10234 <Dump_Interrupt_State>
   1044a:	c7 04 24 ff ff ff ff 	movl   $0xffffffff,(%esp)
   10451:	e8 cc 52 00 00       	call   15722 <Exit>
   10456:	90                   	nop
   10457:	90                   	nop
   10458:	90                   	nop
   10459:	90                   	nop
   1045a:	90                   	nop
   1045b:	90                   	nop
   1045c:	90                   	nop
   1045d:	90                   	nop
   1045e:	90                   	nop
   1045f:	90                   	nop

00010460 <Get_IRQ_Mask>:
   10460:	55                   	push   %ebp
   10461:	89 e5                	mov    %esp,%ebp
   10463:	0f b7 05 00 f0 01 00 	movzwl 0x1f000,%eax
   1046a:	5d                   	pop    %ebp
   1046b:	c3                   	ret    

0001046c <Begin_IRQ>:
   1046c:	55                   	push   %ebp
   1046d:	89 e5                	mov    %esp,%ebp
   1046f:	5d                   	pop    %ebp
   10470:	c3                   	ret    

00010471 <End_IRQ>:
   10471:	55                   	push   %ebp
   10472:	89 e5                	mov    %esp,%ebp
   10474:	83 ec 18             	sub    $0x18,%esp
   10477:	8b 45 08             	mov    0x8(%ebp),%eax
   1047a:	8b 40 2c             	mov    0x2c(%eax),%eax
   1047d:	83 e8 20             	sub    $0x20,%eax
   10480:	89 c2                	mov    %eax,%edx
   10482:	83 e2 07             	and    $0x7,%edx
   10485:	83 ca 60             	or     $0x60,%edx
   10488:	83 f8 07             	cmp    $0x7,%eax
   1048b:	7f 15                	jg     104a2 <End_IRQ+0x31>
   1048d:	0f b6 d2             	movzbl %dl,%edx
   10490:	89 54 24 04          	mov    %edx,0x4(%esp)
   10494:	c7 04 24 20 00 00 00 	movl   $0x20,(%esp)
   1049b:	e8 bc 03 00 00       	call   1085c <Out_Byte>
   104a0:	eb 27                	jmp    104c9 <End_IRQ+0x58>
   104a2:	0f b6 d2             	movzbl %dl,%edx
   104a5:	89 54 24 04          	mov    %edx,0x4(%esp)
   104a9:	c7 04 24 a0 00 00 00 	movl   $0xa0,(%esp)
   104b0:	e8 a7 03 00 00       	call   1085c <Out_Byte>
   104b5:	c7 44 24 04 62 00 00 	movl   $0x62,0x4(%esp)
   104bc:	00 
   104bd:	c7 04 24 20 00 00 00 	movl   $0x20,(%esp)
   104c4:	e8 93 03 00 00       	call   1085c <Out_Byte>
   104c9:	c9                   	leave  
   104ca:	c3                   	ret    

000104cb <Set_IRQ_Mask>:
   104cb:	55                   	push   %ebp
   104cc:	89 e5                	mov    %esp,%ebp
   104ce:	53                   	push   %ebx
   104cf:	83 ec 14             	sub    $0x14,%esp
   104d2:	0f b7 5d 08          	movzwl 0x8(%ebp),%ebx
   104d6:	3a 1d 00 f0 01 00    	cmp    0x1f000,%bl
   104dc:	74 13                	je     104f1 <Set_IRQ_Mask+0x26>
   104de:	0f b6 c3             	movzbl %bl,%eax
   104e1:	89 44 24 04          	mov    %eax,0x4(%esp)
   104e5:	c7 04 24 21 00 00 00 	movl   $0x21,(%esp)
   104ec:	e8 6b 03 00 00       	call   1085c <Out_Byte>
   104f1:	89 d8                	mov    %ebx,%eax
   104f3:	66 c1 e8 08          	shr    $0x8,%ax
   104f7:	3a 05 01 f0 01 00    	cmp    0x1f001,%al
   104fd:	74 13                	je     10512 <Set_IRQ_Mask+0x47>
   104ff:	0f b6 c0             	movzbl %al,%eax
   10502:	89 44 24 04          	mov    %eax,0x4(%esp)
   10506:	c7 04 24 a1 00 00 00 	movl   $0xa1,(%esp)
   1050d:	e8 4a 03 00 00       	call   1085c <Out_Byte>
   10512:	66 89 1d 00 f0 01 00 	mov    %bx,0x1f000
   10519:	83 c4 14             	add    $0x14,%esp
   1051c:	5b                   	pop    %ebx
   1051d:	5d                   	pop    %ebp
   1051e:	c3                   	ret    

0001051f <Install_IRQ>:
   1051f:	55                   	push   %ebp
   10520:	89 e5                	mov    %esp,%ebp
   10522:	83 ec 18             	sub    $0x18,%esp
   10525:	8b 45 0c             	mov    0xc(%ebp),%eax
   10528:	89 44 24 04          	mov    %eax,0x4(%esp)
   1052c:	8b 45 08             	mov    0x8(%ebp),%eax
   1052f:	83 c0 20             	add    $0x20,%eax
   10532:	89 04 24             	mov    %eax,(%esp)
   10535:	e8 0f fb ff ff       	call   10049 <Install_Interrupt_Handler>
   1053a:	c9                   	leave  
   1053b:	c3                   	ret    

0001053c <Enable_IRQ>:
   1053c:	55                   	push   %ebp
   1053d:	89 e5                	mov    %esp,%ebp
   1053f:	53                   	push   %ebx
   10540:	83 ec 24             	sub    $0x24,%esp
   10543:	e8 09 fe ff ff       	call   10351 <Interrupts_Enabled>
   10548:	89 c3                	mov    %eax,%ebx
   1054a:	84 c0                	test   %al,%al
   1054c:	74 54                	je     105a2 <Enable_IRQ+0x66>
   1054e:	e8 fe fd ff ff       	call   10351 <Interrupts_Enabled>
   10553:	84 c0                	test   %al,%al
   10555:	75 4a                	jne    105a1 <Enable_IRQ+0x65>
   10557:	c7 04 24 4f 00 00 00 	movl   $0x4f,(%esp)
   1055e:	e8 90 0b 00 00       	call   110f3 <Set_Current_Attr>
   10563:	a1 d0 07 02 00       	mov    0x207d0,%eax
   10568:	89 44 24 18          	mov    %eax,0x18(%esp)
   1056c:	8b 45 04             	mov    0x4(%ebp),%eax
   1056f:	89 44 24 14          	mov    %eax,0x14(%esp)
   10573:	c7 44 24 10 8f 00 00 	movl   $0x8f,0x10(%esp)
   1057a:	00 
   1057b:	c7 44 24 0c 6e ce 01 	movl   $0x1ce6e,0xc(%esp)
   10582:	00 
   10583:	c7 44 24 08 5f cd 01 	movl   $0x1cd5f,0x8(%esp)
   1058a:	00 
   1058b:	c7 44 24 04 bb ce 01 	movl   $0x1cebb,0x4(%esp)
   10592:	00 
   10593:	c7 04 24 1c cc 01 00 	movl   $0x1cc1c,(%esp)
   1059a:	e8 1d 0a 00 00       	call   10fbc <Print>
   1059f:	eb fe                	jmp    1059f <Enable_IRQ+0x63>
   105a1:	fa                   	cli    
   105a2:	83 7d 08 0f          	cmpl   $0xf,0x8(%ebp)
   105a6:	76 4b                	jbe    105f3 <Enable_IRQ+0xb7>
   105a8:	c7 04 24 4f 00 00 00 	movl   $0x4f,(%esp)
   105af:	90                   	nop
   105b0:	e8 3e 0b 00 00       	call   110f3 <Set_Current_Attr>
   105b5:	a1 d0 07 02 00       	mov    0x207d0,%eax
   105ba:	89 44 24 18          	mov    %eax,0x18(%esp)
   105be:	8b 45 04             	mov    0x4(%ebp),%eax
   105c1:	89 44 24 14          	mov    %eax,0x14(%esp)
   105c5:	c7 44 24 10 54 00 00 	movl   $0x54,0x10(%esp)
   105cc:	00 
   105cd:	c7 44 24 0c 86 ce 01 	movl   $0x1ce86,0xc(%esp)
   105d4:	00 
   105d5:	c7 44 24 08 9a ce 01 	movl   $0x1ce9a,0x8(%esp)
   105dc:	00 
   105dd:	c7 44 24 04 db ce 01 	movl   $0x1cedb,0x4(%esp)
   105e4:	00 
   105e5:	c7 04 24 1c cc 01 00 	movl   $0x1cc1c,(%esp)
   105ec:	e8 cb 09 00 00       	call   10fbc <Print>
   105f1:	eb fe                	jmp    105f1 <Enable_IRQ+0xb5>
   105f3:	e8 68 fe ff ff       	call   10460 <Get_IRQ_Mask>
   105f8:	ba fe ff ff ff       	mov    $0xfffffffe,%edx
   105fd:	0f b6 4d 08          	movzbl 0x8(%ebp),%ecx
   10601:	d3 c2                	rol    %cl,%edx
   10603:	21 d0                	and    %edx,%eax
   10605:	0f b7 c0             	movzwl %ax,%eax
   10608:	89 04 24             	mov    %eax,(%esp)
   1060b:	e8 bb fe ff ff       	call   104cb <Set_IRQ_Mask>
   10610:	e8 3c fd ff ff       	call   10351 <Interrupts_Enabled>
   10615:	84 c0                	test   %al,%al
   10617:	74 4a                	je     10663 <Enable_IRQ+0x127>
   10619:	c7 04 24 4f 00 00 00 	movl   $0x4f,(%esp)
   10620:	e8 ce 0a 00 00       	call   110f3 <Set_Current_Attr>
   10625:	a1 d0 07 02 00       	mov    0x207d0,%eax
   1062a:	89 44 24 18          	mov    %eax,0x18(%esp)
   1062e:	8b 45 04             	mov    0x4(%ebp),%eax
   10631:	89 44 24 14          	mov    %eax,0x14(%esp)
   10635:	c7 44 24 10 99 00 00 	movl   $0x99,0x10(%esp)
   1063c:	00 
   1063d:	c7 44 24 0c 6e ce 01 	movl   $0x1ce6e,0xc(%esp)
   10644:	00 
   10645:	c7 44 24 08 5e cd 01 	movl   $0x1cd5e,0x8(%esp)
   1064c:	00 
   1064d:	c7 44 24 04 cc ce 01 	movl   $0x1cecc,0x4(%esp)
   10654:	00 
   10655:	c7 04 24 1c cc 01 00 	movl   $0x1cc1c,(%esp)
   1065c:	e8 5b 09 00 00       	call   10fbc <Print>
   10661:	eb fe                	jmp    10661 <Enable_IRQ+0x125>
   10663:	84 db                	test   %bl,%bl
   10665:	74 5d                	je     106c4 <Enable_IRQ+0x188>
   10667:	89 f6                	mov    %esi,%esi
   10669:	8d bc 27 00 00 00 00 	lea    0x0(%edi,%eiz,1),%edi
   10670:	e8 dc fc ff ff       	call   10351 <Interrupts_Enabled>
   10675:	84 c0                	test   %al,%al
   10677:	74 4a                	je     106c3 <Enable_IRQ+0x187>
   10679:	c7 04 24 4f 00 00 00 	movl   $0x4f,(%esp)
   10680:	e8 6e 0a 00 00       	call   110f3 <Set_Current_Attr>
   10685:	a1 d0 07 02 00       	mov    0x207d0,%eax
   1068a:	89 44 24 18          	mov    %eax,0x18(%esp)
   1068e:	8b 45 04             	mov    0x4(%ebp),%eax
   10691:	89 44 24 14          	mov    %eax,0x14(%esp)
   10695:	c7 44 24 10 9c 00 00 	movl   $0x9c,0x10(%esp)
   1069c:	00 
   1069d:	c7 44 24 0c 6e ce 01 	movl   $0x1ce6e,0xc(%esp)
   106a4:	00 
   106a5:	c7 44 24 08 5e cd 01 	movl   $0x1cd5e,0x8(%esp)
   106ac:	00 
   106ad:	c7 44 24 04 cc ce 01 	movl   $0x1cecc,0x4(%esp)
   106b4:	00 
   106b5:	c7 04 24 1c cc 01 00 	movl   $0x1cc1c,(%esp)
   106bc:	e8 fb 08 00 00       	call   10fbc <Print>
   106c1:	eb fe                	jmp    106c1 <Enable_IRQ+0x185>
   106c3:	fb                   	sti    
   106c4:	83 c4 24             	add    $0x24,%esp
   106c7:	5b                   	pop    %ebx
   106c8:	5d                   	pop    %ebp
   106c9:	c3                   	ret    

000106ca <Disable_IRQ>:
   106ca:	55                   	push   %ebp
   106cb:	89 e5                	mov    %esp,%ebp
   106cd:	53                   	push   %ebx
   106ce:	83 ec 24             	sub    $0x24,%esp
   106d1:	e8 7b fc ff ff       	call   10351 <Interrupts_Enabled>
   106d6:	89 c3                	mov    %eax,%ebx
   106d8:	84 c0                	test   %al,%al
   106da:	74 54                	je     10730 <Disable_IRQ+0x66>
   106dc:	e8 70 fc ff ff       	call   10351 <Interrupts_Enabled>
   106e1:	84 c0                	test   %al,%al
   106e3:	75 4a                	jne    1072f <Disable_IRQ+0x65>
   106e5:	c7 04 24 4f 00 00 00 	movl   $0x4f,(%esp)
   106ec:	e8 02 0a 00 00       	call   110f3 <Set_Current_Attr>
   106f1:	a1 d0 07 02 00       	mov    0x207d0,%eax
   106f6:	89 44 24 18          	mov    %eax,0x18(%esp)
   106fa:	8b 45 04             	mov    0x4(%ebp),%eax
   106fd:	89 44 24 14          	mov    %eax,0x14(%esp)
   10701:	c7 44 24 10 8f 00 00 	movl   $0x8f,0x10(%esp)
   10708:	00 
   10709:	c7 44 24 0c 6e ce 01 	movl   $0x1ce6e,0xc(%esp)
   10710:	00 
   10711:	c7 44 24 08 5f cd 01 	movl   $0x1cd5f,0x8(%esp)
   10718:	00 
   10719:	c7 44 24 04 bb ce 01 	movl   $0x1cebb,0x4(%esp)
   10720:	00 
   10721:	c7 04 24 1c cc 01 00 	movl   $0x1cc1c,(%esp)
   10728:	e8 8f 08 00 00       	call   10fbc <Print>
   1072d:	eb fe                	jmp    1072d <Disable_IRQ+0x63>
   1072f:	fa                   	cli    
   10730:	83 7d 08 0f          	cmpl   $0xf,0x8(%ebp)
   10734:	76 4d                	jbe    10783 <Disable_IRQ+0xb9>
   10736:	c7 04 24 4f 00 00 00 	movl   $0x4f,(%esp)
   1073d:	8d 76 00             	lea    0x0(%esi),%esi
   10740:	e8 ae 09 00 00       	call   110f3 <Set_Current_Attr>
   10745:	a1 d0 07 02 00       	mov    0x207d0,%eax
   1074a:	89 44 24 18          	mov    %eax,0x18(%esp)
   1074e:	8b 45 04             	mov    0x4(%ebp),%eax
   10751:	89 44 24 14          	mov    %eax,0x14(%esp)
   10755:	c7 44 24 10 63 00 00 	movl   $0x63,0x10(%esp)
   1075c:	00 
   1075d:	c7 44 24 0c 86 ce 01 	movl   $0x1ce86,0xc(%esp)
   10764:	00 
   10765:	c7 44 24 08 9a ce 01 	movl   $0x1ce9a,0x8(%esp)
   1076c:	00 
   1076d:	c7 44 24 04 af ce 01 	movl   $0x1ceaf,0x4(%esp)
   10774:	00 
   10775:	c7 04 24 1c cc 01 00 	movl   $0x1cc1c,(%esp)
   1077c:	e8 3b 08 00 00       	call   10fbc <Print>
   10781:	eb fe                	jmp    10781 <Disable_IRQ+0xb7>
   10783:	e8 d8 fc ff ff       	call   10460 <Get_IRQ_Mask>
   10788:	ba 01 00 00 00       	mov    $0x1,%edx
   1078d:	0f b6 4d 08          	movzbl 0x8(%ebp),%ecx
   10791:	d3 e2                	shl    %cl,%edx
   10793:	09 d0                	or     %edx,%eax
   10795:	0f b7 c0             	movzwl %ax,%eax
   10798:	89 04 24             	mov    %eax,(%esp)
   1079b:	e8 2b fd ff ff       	call   104cb <Set_IRQ_Mask>
   107a0:	e8 ac fb ff ff       	call   10351 <Interrupts_Enabled>
   107a5:	84 c0                	test   %al,%al
   107a7:	74 4a                	je     107f3 <Disable_IRQ+0x129>
   107a9:	c7 04 24 4f 00 00 00 	movl   $0x4f,(%esp)
   107b0:	e8 3e 09 00 00       	call   110f3 <Set_Current_Attr>
   107b5:	a1 d0 07 02 00       	mov    0x207d0,%eax
   107ba:	89 44 24 18          	mov    %eax,0x18(%esp)
   107be:	8b 45 04             	mov    0x4(%ebp),%eax
   107c1:	89 44 24 14          	mov    %eax,0x14(%esp)
   107c5:	c7 44 24 10 99 00 00 	movl   $0x99,0x10(%esp)
   107cc:	00 
   107cd:	c7 44 24 0c 6e ce 01 	movl   $0x1ce6e,0xc(%esp)
   107d4:	00 
   107d5:	c7 44 24 08 5e cd 01 	movl   $0x1cd5e,0x8(%esp)
   107dc:	00 
   107dd:	c7 44 24 04 cc ce 01 	movl   $0x1cecc,0x4(%esp)
   107e4:	00 
   107e5:	c7 04 24 1c cc 01 00 	movl   $0x1cc1c,(%esp)
   107ec:	e8 cb 07 00 00       	call   10fbc <Print>
   107f1:	eb fe                	jmp    107f1 <Disable_IRQ+0x127>
   107f3:	84 db                	test   %bl,%bl
   107f5:	74 5d                	je     10854 <Disable_IRQ+0x18a>
   107f7:	89 f6                	mov    %esi,%esi
   107f9:	8d bc 27 00 00 00 00 	lea    0x0(%edi,%eiz,1),%edi
   10800:	e8 4c fb ff ff       	call   10351 <Interrupts_Enabled>
   10805:	84 c0                	test   %al,%al
   10807:	74 4a                	je     10853 <Disable_IRQ+0x189>
   10809:	c7 04 24 4f 00 00 00 	movl   $0x4f,(%esp)
   10810:	e8 de 08 00 00       	call   110f3 <Set_Current_Attr>
   10815:	a1 d0 07 02 00       	mov    0x207d0,%eax
   1081a:	89 44 24 18          	mov    %eax,0x18(%esp)
   1081e:	8b 45 04             	mov    0x4(%ebp),%eax
   10821:	89 44 24 14          	mov    %eax,0x14(%esp)
   10825:	c7 44 24 10 9c 00 00 	movl   $0x9c,0x10(%esp)
   1082c:	00 
   1082d:	c7 44 24 0c 6e ce 01 	movl   $0x1ce6e,0xc(%esp)
   10834:	00 
   10835:	c7 44 24 08 5e cd 01 	movl   $0x1cd5e,0x8(%esp)
   1083c:	00 
   1083d:	c7 44 24 04 cc ce 01 	movl   $0x1cecc,0x4(%esp)
   10844:	00 
   10845:	c7 04 24 1c cc 01 00 	movl   $0x1cc1c,(%esp)
   1084c:	e8 6b 07 00 00       	call   10fbc <Print>
   10851:	eb fe                	jmp    10851 <Disable_IRQ+0x187>
   10853:	fb                   	sti    
   10854:	83 c4 24             	add    $0x24,%esp
   10857:	5b                   	pop    %ebx
   10858:	5d                   	pop    %ebp
   10859:	c3                   	ret    
   1085a:	90                   	nop
   1085b:	90                   	nop

0001085c <Out_Byte>:
   1085c:	55                   	push   %ebp
   1085d:	89 e5                	mov    %esp,%ebp
   1085f:	0f b6 45 0c          	movzbl 0xc(%ebp),%eax
   10863:	0f b7 55 08          	movzwl 0x8(%ebp),%edx
   10867:	ee                   	out    %al,(%dx)
   10868:	5d                   	pop    %ebp
   10869:	c3                   	ret    

0001086a <In_Byte>:
   1086a:	55                   	push   %ebp
   1086b:	89 e5                	mov    %esp,%ebp
   1086d:	0f b7 55 08          	movzwl 0x8(%ebp),%edx
   10871:	ec                   	in     (%dx),%al
   10872:	5d                   	pop    %ebp
   10873:	c3                   	ret    

00010874 <Out_Word>:
   10874:	55                   	push   %ebp
   10875:	89 e5                	mov    %esp,%ebp
   10877:	0f b7 45 0c          	movzwl 0xc(%ebp),%eax
   1087b:	0f b7 55 08          	movzwl 0x8(%ebp),%edx
   1087f:	66 ef                	out    %ax,(%dx)
   10881:	5d                   	pop    %ebp
   10882:	c3                   	ret    

00010883 <In_Word>:
   10883:	55                   	push   %ebp
   10884:	89 e5                	mov    %esp,%ebp
   10886:	0f b7 55 08          	movzwl 0x8(%ebp),%edx
   1088a:	66 ed                	in     (%dx),%ax
   1088c:	5d                   	pop    %ebp
   1088d:	c3                   	ret    

0001088e <IO_Delay>:
   1088e:	55                   	push   %ebp
   1088f:	89 e5                	mov    %esp,%ebp
   10891:	b8 00 00 00 00       	mov    $0x0,%eax
   10896:	e6 80                	out    %al,$0x80
   10898:	5d                   	pop    %ebp
   10899:	c3                   	ret    
   1089a:	90                   	nop
   1089b:	90                   	nop
   1089c:	90                   	nop
   1089d:	90                   	nop
   1089e:	90                   	nop
   1089f:	90                   	nop

000108a0 <Read_Key>:
   108a0:	55                   	push   %ebp
   108a1:	89 e5                	mov    %esp,%ebp
   108a3:	53                   	push   %ebx
   108a4:	83 ec 34             	sub    $0x34,%esp
   108a7:	e8 a5 fa ff ff       	call   10351 <Interrupts_Enabled>
   108ac:	89 c3                	mov    %eax,%ebx
   108ae:	84 c0                	test   %al,%al
   108b0:	74 54                	je     10906 <Read_Key+0x66>
   108b2:	e8 9a fa ff ff       	call   10351 <Interrupts_Enabled>
   108b7:	84 c0                	test   %al,%al
   108b9:	75 4a                	jne    10905 <Read_Key+0x65>
   108bb:	c7 04 24 4f 00 00 00 	movl   $0x4f,(%esp)
   108c2:	e8 2c 08 00 00       	call   110f3 <Set_Current_Attr>
   108c7:	a1 d0 07 02 00       	mov    0x207d0,%eax
   108cc:	89 44 24 18          	mov    %eax,0x18(%esp)
   108d0:	8b 45 04             	mov    0x4(%ebp),%eax
   108d3:	89 44 24 14          	mov    %eax,0x14(%esp)
   108d7:	c7 44 24 10 8f 00 00 	movl   $0x8f,0x10(%esp)
   108de:	00 
   108df:	c7 44 24 0c 6e ce 01 	movl   $0x1ce6e,0xc(%esp)
   108e6:	00 
   108e7:	c7 44 24 08 5f cd 01 	movl   $0x1cd5f,0x8(%esp)
   108ee:	00 
   108ef:	c7 44 24 04 78 cf 01 	movl   $0x1cf78,0x4(%esp)
   108f6:	00 
   108f7:	c7 04 24 1c cc 01 00 	movl   $0x1cc1c,(%esp)
   108fe:	e8 b9 06 00 00       	call   10fbc <Print>
   10903:	eb fe                	jmp    10903 <Read_Key+0x63>
   10905:	fa                   	cli    
   10906:	a1 60 fb 01 00       	mov    0x1fb60,%eax
   1090b:	8b 15 64 fb 01 00    	mov    0x1fb64,%edx
   10911:	39 d0                	cmp    %edx,%eax
   10913:	0f 95 45 f7          	setne  -0x9(%ebp)
   10917:	74 67                	je     10980 <Read_Key+0xe0>
   10919:	75 4a                	jne    10965 <Read_Key+0xc5>
   1091b:	c7 04 24 4f 00 00 00 	movl   $0x4f,(%esp)
   10922:	e8 cc 07 00 00       	call   110f3 <Set_Current_Attr>
   10927:	a1 d0 07 02 00       	mov    0x207d0,%eax
   1092c:	89 44 24 18          	mov    %eax,0x18(%esp)
   10930:	8b 45 04             	mov    0x4(%ebp),%eax
   10933:	89 44 24 14          	mov    %eax,0x14(%esp)
   10937:	c7 44 24 10 97 00 00 	movl   $0x97,0x10(%esp)
   1093e:	00 
   1093f:	c7 44 24 0c e6 ce 01 	movl   $0x1cee6,0xc(%esp)
   10946:	00 
   10947:	c7 44 24 08 ff ce 01 	movl   $0x1ceff,0x8(%esp)
   1094e:	00 
   1094f:	c7 44 24 04 89 cf 01 	movl   $0x1cf89,0x4(%esp)
   10956:	00 
   10957:	c7 04 24 1c cc 01 00 	movl   $0x1cc1c,(%esp)
   1095e:	e8 59 06 00 00       	call   10fbc <Print>
   10963:	eb fe                	jmp    10963 <Read_Key+0xc3>
   10965:	0f b7 94 00 60 f9 01 	movzwl 0x1f960(%eax,%eax,1),%edx
   1096c:	00 
   1096d:	83 c0 01             	add    $0x1,%eax
   10970:	25 ff 00 00 00       	and    $0xff,%eax
   10975:	a3 60 fb 01 00       	mov    %eax,0x1fb60
   1097a:	8b 45 08             	mov    0x8(%ebp),%eax
   1097d:	66 89 10             	mov    %dx,(%eax)
   10980:	e8 cc f9 ff ff       	call   10351 <Interrupts_Enabled>
   10985:	84 c0                	test   %al,%al
   10987:	74 4a                	je     109d3 <Read_Key+0x133>
   10989:	c7 04 24 4f 00 00 00 	movl   $0x4f,(%esp)
   10990:	e8 5e 07 00 00       	call   110f3 <Set_Current_Attr>
   10995:	a1 d0 07 02 00       	mov    0x207d0,%eax
   1099a:	89 44 24 18          	mov    %eax,0x18(%esp)
   1099e:	8b 45 04             	mov    0x4(%ebp),%eax
   109a1:	89 44 24 14          	mov    %eax,0x14(%esp)
   109a5:	c7 44 24 10 99 00 00 	movl   $0x99,0x10(%esp)
   109ac:	00 
   109ad:	c7 44 24 0c 6e ce 01 	movl   $0x1ce6e,0xc(%esp)
   109b4:	00 
   109b5:	c7 44 24 08 5e cd 01 	movl   $0x1cd5e,0x8(%esp)
   109bc:	00 
   109bd:	c7 44 24 04 99 cf 01 	movl   $0x1cf99,0x4(%esp)
   109c4:	00 
   109c5:	c7 04 24 1c cc 01 00 	movl   $0x1cc1c,(%esp)
   109cc:	e8 eb 05 00 00       	call   10fbc <Print>
   109d1:	eb fe                	jmp    109d1 <Read_Key+0x131>
   109d3:	84 db                	test   %bl,%bl
   109d5:	74 5d                	je     10a34 <Read_Key+0x194>
   109d7:	89 f6                	mov    %esi,%esi
   109d9:	8d bc 27 00 00 00 00 	lea    0x0(%edi,%eiz,1),%edi
   109e0:	e8 6c f9 ff ff       	call   10351 <Interrupts_Enabled>
   109e5:	84 c0                	test   %al,%al
   109e7:	74 4a                	je     10a33 <Read_Key+0x193>
   109e9:	c7 04 24 4f 00 00 00 	movl   $0x4f,(%esp)
   109f0:	e8 fe 06 00 00       	call   110f3 <Set_Current_Attr>
   109f5:	a1 d0 07 02 00       	mov    0x207d0,%eax
   109fa:	89 44 24 18          	mov    %eax,0x18(%esp)
   109fe:	8b 45 04             	mov    0x4(%ebp),%eax
   10a01:	89 44 24 14          	mov    %eax,0x14(%esp)
   10a05:	c7 44 24 10 9c 00 00 	movl   $0x9c,0x10(%esp)
   10a0c:	00 
   10a0d:	c7 44 24 0c 6e ce 01 	movl   $0x1ce6e,0xc(%esp)
   10a14:	00 
   10a15:	c7 44 24 08 5e cd 01 	movl   $0x1cd5e,0x8(%esp)
   10a1c:	00 
   10a1d:	c7 44 24 04 99 cf 01 	movl   $0x1cf99,0x4(%esp)
   10a24:	00 
   10a25:	c7 04 24 1c cc 01 00 	movl   $0x1cc1c,(%esp)
   10a2c:	e8 8b 05 00 00       	call   10fbc <Print>
   10a31:	eb fe                	jmp    10a31 <Read_Key+0x191>
   10a33:	fb                   	sti    
   10a34:	0f b6 45 f7          	movzbl -0x9(%ebp),%eax
   10a38:	83 c4 34             	add    $0x34,%esp
   10a3b:	5b                   	pop    %ebx
   10a3c:	5d                   	pop    %ebp
   10a3d:	c3                   	ret    

00010a3e <Init_Keyboard>:
   10a3e:	55                   	push   %ebp
   10a3f:	89 e5                	mov    %esp,%ebp
   10a41:	83 ec 18             	sub    $0x18,%esp
   10a44:	c7 04 24 11 cf 01 00 	movl   $0x1cf11,(%esp)
   10a4b:	e8 6c 05 00 00       	call   10fbc <Print>
   10a50:	c7 05 40 f9 01 00 00 	movl   $0x0,0x1f940
   10a57:	00 00 00 
   10a5a:	c7 05 64 fb 01 00 00 	movl   $0x0,0x1fb64
   10a61:	00 00 00 
   10a64:	c7 05 60 fb 01 00 00 	movl   $0x0,0x1fb60
   10a6b:	00 00 00 
   10a6e:	c7 44 24 04 96 0a 01 	movl   $0x10a96,0x4(%esp)
   10a75:	00 
   10a76:	c7 04 24 01 00 00 00 	movl   $0x1,(%esp)
   10a7d:	e8 9d fa ff ff       	call   1051f <Install_IRQ>
   10a82:	e8 d9 f9 ff ff       	call   10460 <Get_IRQ_Mask>
   10a87:	25 fd ff 00 00       	and    $0xfffd,%eax
   10a8c:	89 04 24             	mov    %eax,(%esp)
   10a8f:	e8 37 fa ff ff       	call   104cb <Set_IRQ_Mask>
   10a94:	c9                   	leave  
   10a95:	c3                   	ret    

00010a96 <Keyboard_Interrupt_Handler>:
   10a96:	55                   	push   %ebp
   10a97:	89 e5                	mov    %esp,%ebp
   10a99:	83 ec 28             	sub    $0x28,%esp
   10a9c:	89 5d f4             	mov    %ebx,-0xc(%ebp)
   10a9f:	89 75 f8             	mov    %esi,-0x8(%ebp)
   10aa2:	89 7d fc             	mov    %edi,-0x4(%ebp)
   10aa5:	8b 75 08             	mov    0x8(%ebp),%esi
   10aa8:	89 34 24             	mov    %esi,(%esp)
   10aab:	e8 bc f9 ff ff       	call   1046c <Begin_IRQ>
   10ab0:	c7 04 24 64 00 00 00 	movl   $0x64,(%esp)
   10ab7:	e8 ae fd ff ff       	call   1086a <In_Byte>
   10abc:	89 c3                	mov    %eax,%ebx
   10abe:	e8 cb fd ff ff       	call   1088e <IO_Delay>
   10ac3:	f6 c3 01             	test   $0x1,%bl
   10ac6:	0f 84 1c 01 00 00    	je     10be8 <Keyboard_Interrupt_Handler+0x152>
   10acc:	c7 04 24 60 00 00 00 	movl   $0x60,(%esp)
   10ad3:	e8 92 fd ff ff       	call   1086a <In_Byte>
   10ad8:	89 c3                	mov    %eax,%ebx
   10ada:	e8 af fd ff ff       	call   1088e <IO_Delay>
   10adf:	b9 00 00 00 00       	mov    $0x0,%ecx
   10ae4:	84 db                	test   %bl,%bl
   10ae6:	79 08                	jns    10af0 <Keyboard_Interrupt_Handler+0x5a>
   10ae8:	83 e3 7f             	and    $0x7f,%ebx
   10aeb:	b9 01 00 00 00       	mov    $0x1,%ecx
   10af0:	80 fb 57             	cmp    $0x57,%bl
   10af3:	76 18                	jbe    10b0d <Keyboard_Interrupt_Handler+0x77>
   10af5:	0f b6 db             	movzbl %bl,%ebx
   10af8:	89 5c 24 04          	mov    %ebx,0x4(%esp)
   10afc:	c7 04 24 2b cf 01 00 	movl   $0x1cf2b,(%esp)
   10b03:	e8 b4 04 00 00       	call   10fbc <Print>
   10b08:	e9 db 00 00 00       	jmp    10be8 <Keyboard_Interrupt_Handler+0x152>
   10b0d:	a1 40 f9 01 00       	mov    0x1f940,%eax
   10b12:	a8 03                	test   $0x3,%al
   10b14:	0f 95 c2             	setne  %dl
   10b17:	89 d7                	mov    %edx,%edi
   10b19:	74 0d                	je     10b28 <Keyboard_Interrupt_Handler+0x92>
   10b1b:	0f b6 db             	movzbl %bl,%ebx
   10b1e:	0f b7 94 1b c0 cf 01 	movzwl 0x1cfc0(%ebx,%ebx,1),%edx
   10b25:	00 
   10b26:	eb 0b                	jmp    10b33 <Keyboard_Interrupt_Handler+0x9d>
   10b28:	0f b6 db             	movzbl %bl,%ebx
   10b2b:	0f b7 94 1b 80 d0 01 	movzwl 0x1d080(%ebx,%ebx,1),%edx
   10b32:	00 
   10b33:	8d 9a f3 fe ff ff    	lea    -0x10d(%edx),%ebx
   10b39:	66 83 fb 05          	cmp    $0x5,%bx
   10b3d:	77 50                	ja     10b8f <Keyboard_Interrupt_Handler+0xf9>
   10b3f:	0f b7 db             	movzwl %bx,%ebx
   10b42:	ff 24 9d 60 cf 01 00 	jmp    *0x1cf60(,%ebx,4)
   10b49:	ba 02 00 00 00       	mov    $0x2,%edx
   10b4e:	eb 27                	jmp    10b77 <Keyboard_Interrupt_Handler+0xe1>
   10b50:	ba 01 00 00 00       	mov    $0x1,%edx
   10b55:	eb 20                	jmp    10b77 <Keyboard_Interrupt_Handler+0xe1>
   10b57:	ba 04 00 00 00       	mov    $0x4,%edx
   10b5c:	8d 74 26 00          	lea    0x0(%esi,%eiz,1),%esi
   10b60:	eb 15                	jmp    10b77 <Keyboard_Interrupt_Handler+0xe1>
   10b62:	ba 08 00 00 00       	mov    $0x8,%edx
   10b67:	eb 0e                	jmp    10b77 <Keyboard_Interrupt_Handler+0xe1>
   10b69:	ba 10 00 00 00       	mov    $0x10,%edx
   10b6e:	66 90                	xchg   %ax,%ax
   10b70:	eb 05                	jmp    10b77 <Keyboard_Interrupt_Handler+0xe1>
   10b72:	ba 20 00 00 00       	mov    $0x20,%edx
   10b77:	84 c9                	test   %cl,%cl
   10b79:	74 0b                	je     10b86 <Keyboard_Interrupt_Handler+0xf0>
   10b7b:	f7 d2                	not    %edx
   10b7d:	21 d0                	and    %edx,%eax
   10b7f:	a3 40 f9 01 00       	mov    %eax,0x1f940
   10b84:	eb 62                	jmp    10be8 <Keyboard_Interrupt_Handler+0x152>
   10b86:	09 d0                	or     %edx,%eax
   10b88:	a3 40 f9 01 00       	mov    %eax,0x1f940
   10b8d:	eb 59                	jmp    10be8 <Keyboard_Interrupt_Handler+0x152>
   10b8f:	89 fb                	mov    %edi,%ebx
   10b91:	84 db                	test   %bl,%bl
   10b93:	74 03                	je     10b98 <Keyboard_Interrupt_Handler+0x102>
   10b95:	80 ce 10             	or     $0x10,%dh
   10b98:	a8 0c                	test   $0xc,%al
   10b9a:	74 03                	je     10b9f <Keyboard_Interrupt_Handler+0x109>
   10b9c:	80 ce 40             	or     $0x40,%dh
   10b9f:	a8 30                	test   $0x30,%al
   10ba1:	74 03                	je     10ba6 <Keyboard_Interrupt_Handler+0x110>
   10ba3:	80 ce 20             	or     $0x20,%dh
   10ba6:	84 c9                	test   %cl,%cl
   10ba8:	74 05                	je     10baf <Keyboard_Interrupt_Handler+0x119>
   10baa:	66 81 ca 00 80       	or     $0x8000,%dx
   10baf:	8b 0d 64 fb 01 00    	mov    0x1fb64,%ecx
   10bb5:	8d 41 01             	lea    0x1(%ecx),%eax
   10bb8:	25 ff 00 00 00       	and    $0xff,%eax
   10bbd:	3b 05 60 fb 01 00    	cmp    0x1fb60,%eax
   10bc3:	74 0d                	je     10bd2 <Keyboard_Interrupt_Handler+0x13c>
   10bc5:	66 89 94 09 60 f9 01 	mov    %dx,0x1f960(%ecx,%ecx,1)
   10bcc:	00 
   10bcd:	a3 64 fb 01 00       	mov    %eax,0x1fb64
   10bd2:	c7 04 24 68 fb 01 00 	movl   $0x1fb68,(%esp)
   10bd9:	e8 71 47 00 00       	call   1534f <Wake_Up>
   10bde:	c7 05 d4 07 02 00 01 	movl   $0x1,0x207d4
   10be5:	00 00 00 
   10be8:	89 34 24             	mov    %esi,(%esp)
   10beb:	e8 81 f8 ff ff       	call   10471 <End_IRQ>
   10bf0:	8b 5d f4             	mov    -0xc(%ebp),%ebx
   10bf3:	8b 75 f8             	mov    -0x8(%ebp),%esi
   10bf6:	8b 7d fc             	mov    -0x4(%ebp),%edi
   10bf9:	89 ec                	mov    %ebp,%esp
   10bfb:	5d                   	pop    %ebp
   10bfc:	c3                   	ret    

00010bfd <Wait_For_Key>:
   10bfd:	55                   	push   %ebp
   10bfe:	89 e5                	mov    %esp,%ebp
   10c00:	56                   	push   %esi
   10c01:	53                   	push   %ebx
   10c02:	83 ec 20             	sub    $0x20,%esp
   10c05:	e8 47 f7 ff ff       	call   10351 <Interrupts_Enabled>
   10c0a:	89 c3                	mov    %eax,%ebx
   10c0c:	84 c0                	test   %al,%al
   10c0e:	74 54                	je     10c64 <Wait_For_Key+0x67>
   10c10:	e8 3c f7 ff ff       	call   10351 <Interrupts_Enabled>
   10c15:	84 c0                	test   %al,%al
   10c17:	75 4a                	jne    10c63 <Wait_For_Key+0x66>
   10c19:	c7 04 24 4f 00 00 00 	movl   $0x4f,(%esp)
   10c20:	e8 ce 04 00 00       	call   110f3 <Set_Current_Attr>
   10c25:	a1 d0 07 02 00       	mov    0x207d0,%eax
   10c2a:	89 44 24 18          	mov    %eax,0x18(%esp)
   10c2e:	8b 45 04             	mov    0x4(%ebp),%eax
   10c31:	89 44 24 14          	mov    %eax,0x14(%esp)
   10c35:	c7 44 24 10 8f 00 00 	movl   $0x8f,0x10(%esp)
   10c3c:	00 
   10c3d:	c7 44 24 0c 6e ce 01 	movl   $0x1ce6e,0xc(%esp)
   10c44:	00 
   10c45:	c7 44 24 08 5f cd 01 	movl   $0x1cd5f,0x8(%esp)
   10c4c:	00 
   10c4d:	c7 44 24 04 78 cf 01 	movl   $0x1cf78,0x4(%esp)
   10c54:	00 
   10c55:	c7 04 24 1c cc 01 00 	movl   $0x1cc1c,(%esp)
   10c5c:	e8 5b 03 00 00       	call   10fbc <Print>
   10c61:	eb fe                	jmp    10c61 <Wait_For_Key+0x64>
   10c63:	fa                   	cli    
   10c64:	a1 60 fb 01 00       	mov    0x1fb60,%eax
   10c69:	8b 15 64 fb 01 00    	mov    0x1fb64,%edx
   10c6f:	39 d0                	cmp    %edx,%eax
   10c71:	74 6c                	je     10cdf <Wait_For_Key+0xe2>
   10c73:	75 4a                	jne    10cbf <Wait_For_Key+0xc2>
   10c75:	c7 04 24 4f 00 00 00 	movl   $0x4f,(%esp)
   10c7c:	e8 72 04 00 00       	call   110f3 <Set_Current_Attr>
   10c81:	a1 d0 07 02 00       	mov    0x207d0,%eax
   10c86:	89 44 24 18          	mov    %eax,0x18(%esp)
   10c8a:	8b 45 04             	mov    0x4(%ebp),%eax
   10c8d:	89 44 24 14          	mov    %eax,0x14(%esp)
   10c91:	c7 44 24 10 97 00 00 	movl   $0x97,0x10(%esp)
   10c98:	00 
   10c99:	c7 44 24 0c e6 ce 01 	movl   $0x1cee6,0xc(%esp)
   10ca0:	00 
   10ca1:	c7 44 24 08 ff ce 01 	movl   $0x1ceff,0x8(%esp)
   10ca8:	00 
   10ca9:	c7 44 24 04 89 cf 01 	movl   $0x1cf89,0x4(%esp)
   10cb0:	00 
   10cb1:	c7 04 24 1c cc 01 00 	movl   $0x1cc1c,(%esp)
   10cb8:	e8 ff 02 00 00       	call   10fbc <Print>
   10cbd:	eb fe                	jmp    10cbd <Wait_For_Key+0xc0>
   10cbf:	0f b7 b4 00 60 f9 01 	movzwl 0x1f960(%eax,%eax,1),%esi
   10cc6:	00 
   10cc7:	83 c0 01             	add    $0x1,%eax
   10cca:	25 ff 00 00 00       	and    $0xff,%eax
   10ccf:	a3 60 fb 01 00       	mov    %eax,0x1fb60
   10cd4:	e8 78 f6 ff ff       	call   10351 <Interrupts_Enabled>
   10cd9:	84 c0                	test   %al,%al
   10cdb:	74 5d                	je     10d3a <Wait_For_Key+0x13d>
   10cdd:	eb 11                	jmp    10cf0 <Wait_For_Key+0xf3>
   10cdf:	c7 04 24 68 fb 01 00 	movl   $0x1fb68,(%esp)
   10ce6:	e8 34 43 00 00       	call   1501f <Wait>
   10ceb:	e9 74 ff ff ff       	jmp    10c64 <Wait_For_Key+0x67>
   10cf0:	c7 04 24 4f 00 00 00 	movl   $0x4f,(%esp)
   10cf7:	e8 f7 03 00 00       	call   110f3 <Set_Current_Attr>
   10cfc:	a1 d0 07 02 00       	mov    0x207d0,%eax
   10d01:	89 44 24 18          	mov    %eax,0x18(%esp)
   10d05:	8b 45 04             	mov    0x4(%ebp),%eax
   10d08:	89 44 24 14          	mov    %eax,0x14(%esp)
   10d0c:	c7 44 24 10 99 00 00 	movl   $0x99,0x10(%esp)
   10d13:	00 
   10d14:	c7 44 24 0c 6e ce 01 	movl   $0x1ce6e,0xc(%esp)
   10d1b:	00 
   10d1c:	c7 44 24 08 5e cd 01 	movl   $0x1cd5e,0x8(%esp)
   10d23:	00 
   10d24:	c7 44 24 04 99 cf 01 	movl   $0x1cf99,0x4(%esp)
   10d2b:	00 
   10d2c:	c7 04 24 1c cc 01 00 	movl   $0x1cc1c,(%esp)
   10d33:	e8 84 02 00 00       	call   10fbc <Print>
   10d38:	eb fe                	jmp    10d38 <Wait_For_Key+0x13b>
   10d3a:	84 db                	test   %bl,%bl
   10d3c:	74 56                	je     10d94 <Wait_For_Key+0x197>
   10d3e:	66 90                	xchg   %ax,%ax
   10d40:	e8 0c f6 ff ff       	call   10351 <Interrupts_Enabled>
   10d45:	84 c0                	test   %al,%al
   10d47:	74 4a                	je     10d93 <Wait_For_Key+0x196>
   10d49:	c7 04 24 4f 00 00 00 	movl   $0x4f,(%esp)
   10d50:	e8 9e 03 00 00       	call   110f3 <Set_Current_Attr>
   10d55:	a1 d0 07 02 00       	mov    0x207d0,%eax
   10d5a:	89 44 24 18          	mov    %eax,0x18(%esp)
   10d5e:	8b 45 04             	mov    0x4(%ebp),%eax
   10d61:	89 44 24 14          	mov    %eax,0x14(%esp)
   10d65:	c7 44 24 10 9c 00 00 	movl   $0x9c,0x10(%esp)
   10d6c:	00 
   10d6d:	c7 44 24 0c 6e ce 01 	movl   $0x1ce6e,0xc(%esp)
   10d74:	00 
   10d75:	c7 44 24 08 5e cd 01 	movl   $0x1cd5e,0x8(%esp)
   10d7c:	00 
   10d7d:	c7 44 24 04 99 cf 01 	movl   $0x1cf99,0x4(%esp)
   10d84:	00 
   10d85:	c7 04 24 1c cc 01 00 	movl   $0x1cc1c,(%esp)
   10d8c:	e8 2b 02 00 00       	call   10fbc <Print>
   10d91:	eb fe                	jmp    10d91 <Wait_For_Key+0x194>
   10d93:	fb                   	sti    
   10d94:	89 f0                	mov    %esi,%eax
   10d96:	83 c4 20             	add    $0x20,%esp
   10d99:	5b                   	pop    %ebx
   10d9a:	5e                   	pop    %esi
   10d9b:	5d                   	pop    %ebp
   10d9c:	c3                   	ret    
   10d9d:	90                   	nop
   10d9e:	90                   	nop
   10d9f:	90                   	nop

00010da0 <Clear_To_EOL>:
   10da0:	55                   	push   %ebp
   10da1:	89 e5                	mov    %esp,%ebp
   10da3:	53                   	push   %ebx
   10da4:	a1 84 fb 01 00       	mov    0x1fb84,%eax
   10da9:	b9 50 00 00 00       	mov    $0x50,%ecx
   10dae:	29 c1                	sub    %eax,%ecx
   10db0:	8b 15 80 fb 01 00    	mov    0x1fb80,%edx
   10db6:	85 c9                	test   %ecx,%ecx
   10db8:	7e 2c                	jle    10de6 <Clear_To_EOL+0x46>
   10dba:	8d 14 92             	lea    (%edx,%edx,4),%edx
   10dbd:	c1 e2 04             	shl    $0x4,%edx
   10dc0:	8d 04 02             	lea    (%edx,%eax,1),%eax
   10dc3:	8d 84 00 00 80 0b 00 	lea    0xb8000(%eax,%eax,1),%eax
   10dca:	0f b6 1d 90 fb 01 00 	movzbl 0x1fb90,%ebx
   10dd1:	ba 00 00 00 00       	mov    $0x0,%edx
   10dd6:	c6 00 20             	movb   $0x20,(%eax)
   10dd9:	88 58 01             	mov    %bl,0x1(%eax)
   10ddc:	83 c0 02             	add    $0x2,%eax
   10ddf:	83 c2 01             	add    $0x1,%edx
   10de2:	39 ca                	cmp    %ecx,%edx
   10de4:	75 f0                	jne    10dd6 <Clear_To_EOL+0x36>
   10de6:	5b                   	pop    %ebx
   10de7:	5d                   	pop    %ebp
   10de8:	c3                   	ret    

00010de9 <Newline>:
   10de9:	55                   	push   %ebp
   10dea:	89 e5                	mov    %esp,%ebp
   10dec:	ba 80 fb 01 00       	mov    $0x1fb80,%edx
   10df1:	8b 02                	mov    (%edx),%eax
   10df3:	83 c0 01             	add    $0x1,%eax
   10df6:	89 02                	mov    %eax,(%edx)
   10df8:	c7 05 84 fb 01 00 00 	movl   $0x0,0x1fb84
   10dff:	00 00 00 
   10e02:	83 f8 19             	cmp    $0x19,%eax
   10e05:	75 44                	jne    10e4b <Newline+0x62>
   10e07:	0f b6 05 90 fb 01 00 	movzbl 0x1fb90,%eax
   10e0e:	89 c1                	mov    %eax,%ecx
   10e10:	c1 e1 18             	shl    $0x18,%ecx
   10e13:	c1 e0 08             	shl    $0x8,%eax
   10e16:	09 c1                	or     %eax,%ecx
   10e18:	81 c9 20 00 20 00    	or     $0x200020,%ecx
   10e1e:	b8 00 80 0b 00       	mov    $0xb8000,%eax
   10e23:	8b 90 a0 00 00 00    	mov    0xa0(%eax),%edx
   10e29:	89 10                	mov    %edx,(%eax)
   10e2b:	83 c0 04             	add    $0x4,%eax
   10e2e:	3d 00 8f 0b 00       	cmp    $0xb8f00,%eax
   10e33:	75 ee                	jne    10e23 <Newline+0x3a>
   10e35:	89 08                	mov    %ecx,(%eax)
   10e37:	83 c0 04             	add    $0x4,%eax
   10e3a:	3d a0 8f 0b 00       	cmp    $0xb8fa0,%eax
   10e3f:	75 f4                	jne    10e35 <Newline+0x4c>
   10e41:	c7 05 80 fb 01 00 18 	movl   $0x18,0x1fb80
   10e48:	00 00 00 
   10e4b:	5d                   	pop    %ebp
   10e4c:	c3                   	ret    

00010e4d <Put_Graphic_Char>:
   10e4d:	55                   	push   %ebp
   10e4e:	89 e5                	mov    %esp,%ebp
   10e50:	8b 15 84 fb 01 00    	mov    0x1fb84,%edx
   10e56:	8b 0d 80 fb 01 00    	mov    0x1fb80,%ecx
   10e5c:	8d 0c 89             	lea    (%ecx,%ecx,4),%ecx
   10e5f:	c1 e1 04             	shl    $0x4,%ecx
   10e62:	01 d1                	add    %edx,%ecx
   10e64:	8d 8c 09 00 80 0b 00 	lea    0xb8000(%ecx,%ecx,1),%ecx
   10e6b:	88 01                	mov    %al,(%ecx)
   10e6d:	0f b6 05 90 fb 01 00 	movzbl 0x1fb90,%eax
   10e74:	88 41 01             	mov    %al,0x1(%ecx)
   10e77:	83 fa 4e             	cmp    $0x4e,%edx
   10e7a:	7f 0b                	jg     10e87 <Put_Graphic_Char+0x3a>
   10e7c:	83 c2 01             	add    $0x1,%edx
   10e7f:	89 15 84 fb 01 00    	mov    %edx,0x1fb84
   10e85:	eb 05                	jmp    10e8c <Put_Graphic_Char+0x3f>
   10e87:	e8 5d ff ff ff       	call   10de9 <Newline>
   10e8c:	5d                   	pop    %ebp
   10e8d:	c3                   	ret    

00010e8e <Move_Cursor>:
   10e8e:	55                   	push   %ebp
   10e8f:	89 e5                	mov    %esp,%ebp
   10e91:	83 f8 18             	cmp    $0x18,%eax
   10e94:	7e 05                	jle    10e9b <Move_Cursor+0xd>
   10e96:	b8 18 00 00 00       	mov    $0x18,%eax
   10e9b:	83 fa 4f             	cmp    $0x4f,%edx
   10e9e:	7e 05                	jle    10ea5 <Move_Cursor+0x17>
   10ea0:	ba 4f 00 00 00       	mov    $0x4f,%edx
   10ea5:	89 c1                	mov    %eax,%ecx
   10ea7:	c1 f9 1f             	sar    $0x1f,%ecx
   10eaa:	f7 d1                	not    %ecx
   10eac:	21 c8                	and    %ecx,%eax
   10eae:	a3 80 fb 01 00       	mov    %eax,0x1fb80
   10eb3:	89 d0                	mov    %edx,%eax
   10eb5:	c1 f8 1f             	sar    $0x1f,%eax
   10eb8:	f7 d0                	not    %eax
   10eba:	21 c2                	and    %eax,%edx
   10ebc:	89 15 84 fb 01 00    	mov    %edx,0x1fb84
   10ec2:	5d                   	pop    %ebp
   10ec3:	c3                   	ret    

00010ec4 <Reset>:
   10ec4:	55                   	push   %ebp
   10ec5:	89 e5                	mov    %esp,%ebp
   10ec7:	c7 05 94 fb 01 00 00 	movl   $0x0,0x1fb94
   10ece:	00 00 00 
   10ed1:	c7 05 b8 fb 01 00 00 	movl   $0x0,0x1fbb8
   10ed8:	00 00 00 
   10edb:	5d                   	pop    %ebp
   10edc:	c3                   	ret    

00010edd <Get_Arg>:
   10edd:	55                   	push   %ebp
   10ede:	89 e5                	mov    %esp,%ebp
   10ee0:	89 c2                	mov    %eax,%edx
   10ee2:	b8 00 00 00 00       	mov    $0x0,%eax
   10ee7:	39 15 b8 fb 01 00    	cmp    %edx,0x1fbb8
   10eed:	7e 07                	jle    10ef6 <Get_Arg+0x19>
   10eef:	8b 04 95 98 fb 01 00 	mov    0x1fb98(,%edx,4),%eax
   10ef6:	5d                   	pop    %ebp
   10ef7:	c3                   	ret    

00010ef8 <Get_Current_Attr>:
   10ef8:	55                   	push   %ebp
   10ef9:	89 e5                	mov    %esp,%ebp
   10efb:	0f b6 05 90 fb 01 00 	movzbl 0x1fb90,%eax
   10f02:	5d                   	pop    %ebp
   10f03:	c3                   	ret    

00010f04 <Update_Cursor>:
   10f04:	55                   	push   %ebp
   10f05:	89 e5                	mov    %esp,%ebp
   10f07:	56                   	push   %esi
   10f08:	53                   	push   %ebx
   10f09:	83 ec 10             	sub    $0x10,%esp
   10f0c:	a1 80 fb 01 00       	mov    0x1fb80,%eax
   10f11:	8d 1c 80             	lea    (%eax,%eax,4),%ebx
   10f14:	c1 e3 04             	shl    $0x4,%ebx
   10f17:	03 1d 84 fb 01 00    	add    0x1fb84,%ebx
   10f1d:	c7 04 24 d4 03 00 00 	movl   $0x3d4,(%esp)
   10f24:	e8 41 f9 ff ff       	call   1086a <In_Byte>
   10f29:	89 c6                	mov    %eax,%esi
   10f2b:	e8 5e f9 ff ff       	call   1088e <IO_Delay>
   10f30:	c7 44 24 04 0e 00 00 	movl   $0xe,0x4(%esp)
   10f37:	00 
   10f38:	c7 04 24 d4 03 00 00 	movl   $0x3d4,(%esp)
   10f3f:	e8 18 f9 ff ff       	call   1085c <Out_Byte>
   10f44:	e8 45 f9 ff ff       	call   1088e <IO_Delay>
   10f49:	0f b6 c7             	movzbl %bh,%eax
   10f4c:	89 44 24 04          	mov    %eax,0x4(%esp)
   10f50:	c7 04 24 d5 03 00 00 	movl   $0x3d5,(%esp)
   10f57:	e8 00 f9 ff ff       	call   1085c <Out_Byte>
   10f5c:	e8 2d f9 ff ff       	call   1088e <IO_Delay>
   10f61:	c7 44 24 04 0f 00 00 	movl   $0xf,0x4(%esp)
   10f68:	00 
   10f69:	c7 04 24 d4 03 00 00 	movl   $0x3d4,(%esp)
   10f70:	e8 e7 f8 ff ff       	call   1085c <Out_Byte>
   10f75:	e8 14 f9 ff ff       	call   1088e <IO_Delay>
   10f7a:	0f b6 db             	movzbl %bl,%ebx
   10f7d:	89 5c 24 04          	mov    %ebx,0x4(%esp)
   10f81:	c7 04 24 d5 03 00 00 	movl   $0x3d5,(%esp)
   10f88:	e8 cf f8 ff ff       	call   1085c <Out_Byte>
   10f8d:	e8 fc f8 ff ff       	call   1088e <IO_Delay>
   10f92:	81 e6 ff 00 00 00    	and    $0xff,%esi
   10f98:	89 74 24 04          	mov    %esi,0x4(%esp)
   10f9c:	c7 04 24 d4 03 00 00 	movl   $0x3d4,(%esp)
   10fa3:	e8 b4 f8 ff ff       	call   1085c <Out_Byte>
   10fa8:	83 c4 10             	add    $0x10,%esp
   10fab:	5b                   	pop    %ebx
   10fac:	5e                   	pop    %esi
   10fad:	5d                   	pop    %ebp
   10fae:	c3                   	ret    

00010faf <Print_Finish>:
   10faf:	55                   	push   %ebp
   10fb0:	89 e5                	mov    %esp,%ebp
   10fb2:	83 ec 08             	sub    $0x8,%esp
   10fb5:	e8 4a ff ff ff       	call   10f04 <Update_Cursor>
   10fba:	c9                   	leave  
   10fbb:	c3                   	ret    

00010fbc <Print>:
   10fbc:	55                   	push   %ebp
   10fbd:	89 e5                	mov    %esp,%ebp
   10fbf:	53                   	push   %ebx
   10fc0:	83 ec 24             	sub    $0x24,%esp
   10fc3:	e8 89 f3 ff ff       	call   10351 <Interrupts_Enabled>
   10fc8:	89 c3                	mov    %eax,%ebx
   10fca:	84 c0                	test   %al,%al
   10fcc:	74 54                	je     11022 <Print+0x66>
   10fce:	e8 7e f3 ff ff       	call   10351 <Interrupts_Enabled>
   10fd3:	84 c0                	test   %al,%al
   10fd5:	75 4a                	jne    11021 <Print+0x65>
   10fd7:	c7 04 24 4f 00 00 00 	movl   $0x4f,(%esp)
   10fde:	e8 10 01 00 00       	call   110f3 <Set_Current_Attr>
   10fe3:	a1 d0 07 02 00       	mov    0x207d0,%eax
   10fe8:	89 44 24 18          	mov    %eax,0x18(%esp)
   10fec:	8b 45 04             	mov    0x4(%ebp),%eax
   10fef:	89 44 24 14          	mov    %eax,0x14(%esp)
   10ff3:	c7 44 24 10 8f 00 00 	movl   $0x8f,0x10(%esp)
   10ffa:	00 
   10ffb:	c7 44 24 0c 6e ce 01 	movl   $0x1ce6e,0xc(%esp)
   11002:	00 
   11003:	c7 44 24 08 5f cd 01 	movl   $0x1cd5f,0x8(%esp)
   1100a:	00 
   1100b:	c7 44 24 04 b1 d1 01 	movl   $0x1d1b1,0x4(%esp)
   11012:	00 
   11013:	c7 04 24 1c cc 01 00 	movl   $0x1cc1c,(%esp)
   1101a:	e8 9d ff ff ff       	call   10fbc <Print>
   1101f:	eb fe                	jmp    1101f <Print+0x63>
   11021:	fa                   	cli    
   11022:	8d 45 0c             	lea    0xc(%ebp),%eax
   11025:	89 44 24 08          	mov    %eax,0x8(%esp)
   11029:	8b 45 08             	mov    0x8(%ebp),%eax
   1102c:	89 44 24 04          	mov    %eax,0x4(%esp)
   11030:	c7 04 24 04 f0 01 00 	movl   $0x1f004,(%esp)
   11037:	e8 84 ae 00 00       	call   1bec0 <Format_Output>
   1103c:	e8 10 f3 ff ff       	call   10351 <Interrupts_Enabled>
   11041:	84 c0                	test   %al,%al
   11043:	74 4a                	je     1108f <Print+0xd3>
   11045:	c7 04 24 4f 00 00 00 	movl   $0x4f,(%esp)
   1104c:	e8 a2 00 00 00       	call   110f3 <Set_Current_Attr>
   11051:	a1 d0 07 02 00       	mov    0x207d0,%eax
   11056:	89 44 24 18          	mov    %eax,0x18(%esp)
   1105a:	8b 45 04             	mov    0x4(%ebp),%eax
   1105d:	89 44 24 14          	mov    %eax,0x14(%esp)
   11061:	c7 44 24 10 99 00 00 	movl   $0x99,0x10(%esp)
   11068:	00 
   11069:	c7 44 24 0c 6e ce 01 	movl   $0x1ce6e,0xc(%esp)
   11070:	00 
   11071:	c7 44 24 08 5e cd 01 	movl   $0x1cd5e,0x8(%esp)
   11078:	00 
   11079:	c7 44 24 04 c2 d1 01 	movl   $0x1d1c2,0x4(%esp)
   11080:	00 
   11081:	c7 04 24 1c cc 01 00 	movl   $0x1cc1c,(%esp)
   11088:	e8 2f ff ff ff       	call   10fbc <Print>
   1108d:	eb fe                	jmp    1108d <Print+0xd1>
   1108f:	84 db                	test   %bl,%bl
   11091:	74 5a                	je     110ed <Print+0x131>
   11093:	90                   	nop
   11094:	8d 74 26 00          	lea    0x0(%esi,%eiz,1),%esi
   11098:	e8 b4 f2 ff ff       	call   10351 <Interrupts_Enabled>
   1109d:	84 c0                	test   %al,%al
   1109f:	90                   	nop
   110a0:	74 4a                	je     110ec <Print+0x130>
   110a2:	c7 04 24 4f 00 00 00 	movl   $0x4f,(%esp)
   110a9:	e8 45 00 00 00       	call   110f3 <Set_Current_Attr>
   110ae:	a1 d0 07 02 00       	mov    0x207d0,%eax
   110b3:	89 44 24 18          	mov    %eax,0x18(%esp)
   110b7:	8b 45 04             	mov    0x4(%ebp),%eax
   110ba:	89 44 24 14          	mov    %eax,0x14(%esp)
   110be:	c7 44 24 10 9c 00 00 	movl   $0x9c,0x10(%esp)
   110c5:	00 
   110c6:	c7 44 24 0c 6e ce 01 	movl   $0x1ce6e,0xc(%esp)
   110cd:	00 
   110ce:	c7 44 24 08 5e cd 01 	movl   $0x1cd5e,0x8(%esp)
   110d5:	00 
   110d6:	c7 44 24 04 c2 d1 01 	movl   $0x1d1c2,0x4(%esp)
   110dd:	00 
   110de:	c7 04 24 1c cc 01 00 	movl   $0x1cc1c,(%esp)
   110e5:	e8 d2 fe ff ff       	call   10fbc <Print>
   110ea:	eb fe                	jmp    110ea <Print+0x12e>
   110ec:	fb                   	sti    
   110ed:	83 c4 24             	add    $0x24,%esp
   110f0:	5b                   	pop    %ebx
   110f1:	5d                   	pop    %ebp
   110f2:	c3                   	ret    

000110f3 <Set_Current_Attr>:
   110f3:	55                   	push   %ebp
   110f4:	89 e5                	mov    %esp,%ebp
   110f6:	53                   	push   %ebx
   110f7:	83 ec 34             	sub    $0x34,%esp
   110fa:	0f b6 45 08          	movzbl 0x8(%ebp),%eax
   110fe:	88 45 f7             	mov    %al,-0x9(%ebp)
   11101:	e8 4b f2 ff ff       	call   10351 <Interrupts_Enabled>
   11106:	89 c3                	mov    %eax,%ebx
   11108:	84 c0                	test   %al,%al
   1110a:	74 54                	je     11160 <Set_Current_Attr+0x6d>
   1110c:	e8 40 f2 ff ff       	call   10351 <Interrupts_Enabled>
   11111:	84 c0                	test   %al,%al
   11113:	75 4a                	jne    1115f <Set_Current_Attr+0x6c>
   11115:	c7 04 24 4f 00 00 00 	movl   $0x4f,(%esp)
   1111c:	e8 d2 ff ff ff       	call   110f3 <Set_Current_Attr>
   11121:	a1 d0 07 02 00       	mov    0x207d0,%eax
   11126:	89 44 24 18          	mov    %eax,0x18(%esp)
   1112a:	8b 45 04             	mov    0x4(%ebp),%eax
   1112d:	89 44 24 14          	mov    %eax,0x14(%esp)
   11131:	c7 44 24 10 8f 00 00 	movl   $0x8f,0x10(%esp)
   11138:	00 
   11139:	c7 44 24 0c 6e ce 01 	movl   $0x1ce6e,0xc(%esp)
   11140:	00 
   11141:	c7 44 24 08 5f cd 01 	movl   $0x1cd5f,0x8(%esp)
   11148:	00 
   11149:	c7 44 24 04 b1 d1 01 	movl   $0x1d1b1,0x4(%esp)
   11150:	00 
   11151:	c7 04 24 1c cc 01 00 	movl   $0x1cc1c,(%esp)
   11158:	e8 5f fe ff ff       	call   10fbc <Print>
   1115d:	eb fe                	jmp    1115d <Set_Current_Attr+0x6a>
   1115f:	fa                   	cli    
   11160:	0f b6 45 f7          	movzbl -0x9(%ebp),%eax
   11164:	a2 90 fb 01 00       	mov    %al,0x1fb90
   11169:	e8 e3 f1 ff ff       	call   10351 <Interrupts_Enabled>
   1116e:	84 c0                	test   %al,%al
   11170:	74 4a                	je     111bc <Set_Current_Attr+0xc9>
   11172:	c7 04 24 4f 00 00 00 	movl   $0x4f,(%esp)
   11179:	e8 75 ff ff ff       	call   110f3 <Set_Current_Attr>
   1117e:	a1 d0 07 02 00       	mov    0x207d0,%eax
   11183:	89 44 24 18          	mov    %eax,0x18(%esp)
   11187:	8b 45 04             	mov    0x4(%ebp),%eax
   1118a:	89 44 24 14          	mov    %eax,0x14(%esp)
   1118e:	c7 44 24 10 99 00 00 	movl   $0x99,0x10(%esp)
   11195:	00 
   11196:	c7 44 24 0c 6e ce 01 	movl   $0x1ce6e,0xc(%esp)
   1119d:	00 
   1119e:	c7 44 24 08 5e cd 01 	movl   $0x1cd5e,0x8(%esp)
   111a5:	00 
   111a6:	c7 44 24 04 c2 d1 01 	movl   $0x1d1c2,0x4(%esp)
   111ad:	00 
   111ae:	c7 04 24 1c cc 01 00 	movl   $0x1cc1c,(%esp)
   111b5:	e8 02 fe ff ff       	call   10fbc <Print>
   111ba:	eb fe                	jmp    111ba <Set_Current_Attr+0xc7>
   111bc:	84 db                	test   %bl,%bl
   111be:	74 54                	je     11214 <Set_Current_Attr+0x121>
   111c0:	e8 8c f1 ff ff       	call   10351 <Interrupts_Enabled>
   111c5:	84 c0                	test   %al,%al
   111c7:	74 4a                	je     11213 <Set_Current_Attr+0x120>
   111c9:	c7 04 24 4f 00 00 00 	movl   $0x4f,(%esp)
   111d0:	e8 1e ff ff ff       	call   110f3 <Set_Current_Attr>
   111d5:	a1 d0 07 02 00       	mov    0x207d0,%eax
   111da:	89 44 24 18          	mov    %eax,0x18(%esp)
   111de:	8b 45 04             	mov    0x4(%ebp),%eax
   111e1:	89 44 24 14          	mov    %eax,0x14(%esp)
   111e5:	c7 44 24 10 9c 00 00 	movl   $0x9c,0x10(%esp)
   111ec:	00 
   111ed:	c7 44 24 0c 6e ce 01 	movl   $0x1ce6e,0xc(%esp)
   111f4:	00 
   111f5:	c7 44 24 08 5e cd 01 	movl   $0x1cd5e,0x8(%esp)
   111fc:	00 
   111fd:	c7 44 24 04 c2 d1 01 	movl   $0x1d1c2,0x4(%esp)
   11204:	00 
   11205:	c7 04 24 1c cc 01 00 	movl   $0x1cc1c,(%esp)
   1120c:	e8 ab fd ff ff       	call   10fbc <Print>
   11211:	eb fe                	jmp    11211 <Set_Current_Attr+0x11e>
   11213:	fb                   	sti    
   11214:	83 c4 34             	add    $0x34,%esp
   11217:	5b                   	pop    %ebx
   11218:	5d                   	pop    %ebp
   11219:	c3                   	ret    

0001121a <Put_Cursor>:
   1121a:	55                   	push   %ebp
   1121b:	89 e5                	mov    %esp,%ebp
   1121d:	57                   	push   %edi
   1121e:	56                   	push   %esi
   1121f:	53                   	push   %ebx
   11220:	83 ec 2c             	sub    $0x2c,%esp
   11223:	8b 7d 08             	mov    0x8(%ebp),%edi
   11226:	8b 75 0c             	mov    0xc(%ebp),%esi
   11229:	83 ff 18             	cmp    $0x18,%edi
   1122c:	0f 87 42 01 00 00    	ja     11374 <Put_Cursor+0x15a>
   11232:	85 f6                	test   %esi,%esi
   11234:	0f 88 3a 01 00 00    	js     11374 <Put_Cursor+0x15a>
   1123a:	83 fe 4f             	cmp    $0x4f,%esi
   1123d:	0f 8f 31 01 00 00    	jg     11374 <Put_Cursor+0x15a>
   11243:	90                   	nop
   11244:	8d 74 26 00          	lea    0x0(%esi,%eiz,1),%esi
   11248:	e8 04 f1 ff ff       	call   10351 <Interrupts_Enabled>
   1124d:	89 c3                	mov    %eax,%ebx
   1124f:	84 c0                	test   %al,%al
   11251:	74 54                	je     112a7 <Put_Cursor+0x8d>
   11253:	e8 f9 f0 ff ff       	call   10351 <Interrupts_Enabled>
   11258:	84 c0                	test   %al,%al
   1125a:	75 4a                	jne    112a6 <Put_Cursor+0x8c>
   1125c:	c7 04 24 4f 00 00 00 	movl   $0x4f,(%esp)
   11263:	e8 8b fe ff ff       	call   110f3 <Set_Current_Attr>
   11268:	a1 d0 07 02 00       	mov    0x207d0,%eax
   1126d:	89 44 24 18          	mov    %eax,0x18(%esp)
   11271:	8b 45 04             	mov    0x4(%ebp),%eax
   11274:	89 44 24 14          	mov    %eax,0x14(%esp)
   11278:	c7 44 24 10 8f 00 00 	movl   $0x8f,0x10(%esp)
   1127f:	00 
   11280:	c7 44 24 0c 6e ce 01 	movl   $0x1ce6e,0xc(%esp)
   11287:	00 
   11288:	c7 44 24 08 5f cd 01 	movl   $0x1cd5f,0x8(%esp)
   1128f:	00 
   11290:	c7 44 24 04 b1 d1 01 	movl   $0x1d1b1,0x4(%esp)
   11297:	00 
   11298:	c7 04 24 1c cc 01 00 	movl   $0x1cc1c,(%esp)
   1129f:	e8 18 fd ff ff       	call   10fbc <Print>
   112a4:	eb fe                	jmp    112a4 <Put_Cursor+0x8a>
   112a6:	fa                   	cli    
   112a7:	89 3d 80 fb 01 00    	mov    %edi,0x1fb80
   112ad:	89 35 84 fb 01 00    	mov    %esi,0x1fb84
   112b3:	e8 4c fc ff ff       	call   10f04 <Update_Cursor>
   112b8:	e8 94 f0 ff ff       	call   10351 <Interrupts_Enabled>
   112bd:	84 c0                	test   %al,%al
   112bf:	74 4a                	je     1130b <Put_Cursor+0xf1>
   112c1:	c7 04 24 4f 00 00 00 	movl   $0x4f,(%esp)
   112c8:	e8 26 fe ff ff       	call   110f3 <Set_Current_Attr>
   112cd:	a1 d0 07 02 00       	mov    0x207d0,%eax
   112d2:	89 44 24 18          	mov    %eax,0x18(%esp)
   112d6:	8b 45 04             	mov    0x4(%ebp),%eax
   112d9:	89 44 24 14          	mov    %eax,0x14(%esp)
   112dd:	c7 44 24 10 99 00 00 	movl   $0x99,0x10(%esp)
   112e4:	00 
   112e5:	c7 44 24 0c 6e ce 01 	movl   $0x1ce6e,0xc(%esp)
   112ec:	00 
   112ed:	c7 44 24 08 5e cd 01 	movl   $0x1cd5e,0x8(%esp)
   112f4:	00 
   112f5:	c7 44 24 04 c2 d1 01 	movl   $0x1d1c2,0x4(%esp)
   112fc:	00 
   112fd:	c7 04 24 1c cc 01 00 	movl   $0x1cc1c,(%esp)
   11304:	e8 b3 fc ff ff       	call   10fbc <Print>
   11309:	eb fe                	jmp    11309 <Put_Cursor+0xef>
   1130b:	b8 01 00 00 00       	mov    $0x1,%eax
   11310:	84 db                	test   %bl,%bl
   11312:	74 65                	je     11379 <Put_Cursor+0x15f>
   11314:	8d 74 26 00          	lea    0x0(%esi,%eiz,1),%esi
   11318:	e8 34 f0 ff ff       	call   10351 <Interrupts_Enabled>
   1131d:	84 c0                	test   %al,%al
   1131f:	90                   	nop
   11320:	74 4a                	je     1136c <Put_Cursor+0x152>
   11322:	c7 04 24 4f 00 00 00 	movl   $0x4f,(%esp)
   11329:	e8 c5 fd ff ff       	call   110f3 <Set_Current_Attr>
   1132e:	a1 d0 07 02 00       	mov    0x207d0,%eax
   11333:	89 44 24 18          	mov    %eax,0x18(%esp)
   11337:	8b 45 04             	mov    0x4(%ebp),%eax
   1133a:	89 44 24 14          	mov    %eax,0x14(%esp)
   1133e:	c7 44 24 10 9c 00 00 	movl   $0x9c,0x10(%esp)
   11345:	00 
   11346:	c7 44 24 0c 6e ce 01 	movl   $0x1ce6e,0xc(%esp)
   1134d:	00 
   1134e:	c7 44 24 08 5e cd 01 	movl   $0x1cd5e,0x8(%esp)
   11355:	00 
   11356:	c7 44 24 04 c2 d1 01 	movl   $0x1d1c2,0x4(%esp)
   1135d:	00 
   1135e:	c7 04 24 1c cc 01 00 	movl   $0x1cc1c,(%esp)
   11365:	e8 52 fc ff ff       	call   10fbc <Print>
   1136a:	eb fe                	jmp    1136a <Put_Cursor+0x150>
   1136c:	fb                   	sti    
   1136d:	b8 01 00 00 00       	mov    $0x1,%eax
   11372:	eb 05                	jmp    11379 <Put_Cursor+0x15f>
   11374:	b8 00 00 00 00       	mov    $0x0,%eax
   11379:	83 c4 2c             	add    $0x2c,%esp
   1137c:	5b                   	pop    %ebx
   1137d:	5e                   	pop    %esi
   1137e:	5f                   	pop    %edi
   1137f:	5d                   	pop    %ebp
   11380:	c3                   	ret    

00011381 <Add_Digit>:
   11381:	55                   	push   %ebp
   11382:	89 e5                	mov    %esp,%ebp
   11384:	53                   	push   %ebx
   11385:	83 ec 24             	sub    $0x24,%esp
   11388:	8d 50 d0             	lea    -0x30(%eax),%edx
   1138b:	83 fa 09             	cmp    $0x9,%edx
   1138e:	76 4a                	jbe    113da <Add_Digit+0x59>
   11390:	c7 04 24 4f 00 00 00 	movl   $0x4f,(%esp)
   11397:	e8 57 fd ff ff       	call   110f3 <Set_Current_Attr>
   1139c:	a1 d0 07 02 00       	mov    0x207d0,%eax
   113a1:	89 44 24 18          	mov    %eax,0x18(%esp)
   113a5:	8b 45 04             	mov    0x4(%ebp),%eax
   113a8:	89 44 24 14          	mov    %eax,0x14(%esp)
   113ac:	c7 44 24 10 ff 00 00 	movl   $0xff,0x10(%esp)
   113b3:	00 
   113b4:	c7 44 24 0c 30 d1 01 	movl   $0x1d130,0xc(%esp)
   113bb:	00 
   113bc:	c7 44 24 08 47 d1 01 	movl   $0x1d147,0x8(%esp)
   113c3:	00 
   113c4:	c7 44 24 04 95 d1 01 	movl   $0x1d195,0x4(%esp)
   113cb:	00 
   113cc:	c7 04 24 1c cc 01 00 	movl   $0x1cc1c,(%esp)
   113d3:	e8 e4 fb ff ff       	call   10fbc <Print>
   113d8:	eb fe                	jmp    113d8 <Add_Digit+0x57>
   113da:	8b 0d b8 fb 01 00    	mov    0x1fbb8,%ecx
   113e0:	83 f9 07             	cmp    $0x7,%ecx
   113e3:	7f 15                	jg     113fa <Add_Digit+0x79>
   113e5:	83 c1 03             	add    $0x3,%ecx
   113e8:	ba 80 fb 01 00       	mov    $0x1fb80,%edx
   113ed:	6b 5c 8a 08 0a       	imul   $0xa,0x8(%edx,%ecx,4),%ebx
   113f2:	8d 44 18 d0          	lea    -0x30(%eax,%ebx,1),%eax
   113f6:	89 44 8a 08          	mov    %eax,0x8(%edx,%ecx,4)
   113fa:	83 c4 24             	add    $0x24,%esp
   113fd:	5b                   	pop    %ebx
   113fe:	5d                   	pop    %ebp
   113ff:	c3                   	ret    

00011400 <Start_Arg>:
   11400:	55                   	push   %ebp
   11401:	89 e5                	mov    %esp,%ebp
   11403:	83 ec 28             	sub    $0x28,%esp
   11406:	8b 15 b8 fb 01 00    	mov    0x1fbb8,%edx
   1140c:	39 c2                	cmp    %eax,%edx
   1140e:	74 4a                	je     1145a <Start_Arg+0x5a>
   11410:	c7 04 24 4f 00 00 00 	movl   $0x4f,(%esp)
   11417:	e8 d7 fc ff ff       	call   110f3 <Set_Current_Attr>
   1141c:	a1 d0 07 02 00       	mov    0x207d0,%eax
   11421:	89 44 24 18          	mov    %eax,0x18(%esp)
   11425:	8b 45 04             	mov    0x4(%ebp),%eax
   11428:	89 44 24 14          	mov    %eax,0x14(%esp)
   1142c:	c7 44 24 10 e7 00 00 	movl   $0xe7,0x10(%esp)
   11433:	00 
   11434:	c7 44 24 0c 30 d1 01 	movl   $0x1d130,0xc(%esp)
   1143b:	00 
   1143c:	c7 44 24 08 52 d1 01 	movl   $0x1d152,0x8(%esp)
   11443:	00 
   11444:	c7 44 24 04 9f d1 01 	movl   $0x1d19f,0x4(%esp)
   1144b:	00 
   1144c:	c7 04 24 1c cc 01 00 	movl   $0x1cc1c,(%esp)
   11453:	e8 64 fb ff ff       	call   10fbc <Print>
   11458:	eb fe                	jmp    11458 <Start_Arg+0x58>
   1145a:	8d 42 01             	lea    0x1(%edx),%eax
   1145d:	a3 b8 fb 01 00       	mov    %eax,0x1fbb8
   11462:	c7 05 94 fb 01 00 03 	movl   $0x3,0x1fb94
   11469:	00 00 00 
   1146c:	83 fa 07             	cmp    $0x7,%edx
   1146f:	7f 0b                	jg     1147c <Start_Arg+0x7c>
   11471:	c7 04 95 98 fb 01 00 	movl   $0x0,0x1fb98(,%edx,4)
   11478:	00 00 00 00 
   1147c:	c9                   	leave  
   1147d:	c3                   	ret    

0001147e <Get_Cursor>:
   1147e:	55                   	push   %ebp
   1147f:	89 e5                	mov    %esp,%ebp
   11481:	53                   	push   %ebx
   11482:	83 ec 24             	sub    $0x24,%esp
   11485:	e8 c7 ee ff ff       	call   10351 <Interrupts_Enabled>
   1148a:	89 c3                	mov    %eax,%ebx
   1148c:	84 c0                	test   %al,%al
   1148e:	74 54                	je     114e4 <Get_Cursor+0x66>
   11490:	e8 bc ee ff ff       	call   10351 <Interrupts_Enabled>
   11495:	84 c0                	test   %al,%al
   11497:	75 4a                	jne    114e3 <Get_Cursor+0x65>
   11499:	c7 04 24 4f 00 00 00 	movl   $0x4f,(%esp)
   114a0:	e8 4e fc ff ff       	call   110f3 <Set_Current_Attr>
   114a5:	a1 d0 07 02 00       	mov    0x207d0,%eax
   114aa:	89 44 24 18          	mov    %eax,0x18(%esp)
   114ae:	8b 45 04             	mov    0x4(%ebp),%eax
   114b1:	89 44 24 14          	mov    %eax,0x14(%esp)
   114b5:	c7 44 24 10 8f 00 00 	movl   $0x8f,0x10(%esp)
   114bc:	00 
   114bd:	c7 44 24 0c 6e ce 01 	movl   $0x1ce6e,0xc(%esp)
   114c4:	00 
   114c5:	c7 44 24 08 5f cd 01 	movl   $0x1cd5f,0x8(%esp)
   114cc:	00 
   114cd:	c7 44 24 04 b1 d1 01 	movl   $0x1d1b1,0x4(%esp)
   114d4:	00 
   114d5:	c7 04 24 1c cc 01 00 	movl   $0x1cc1c,(%esp)
   114dc:	e8 db fa ff ff       	call   10fbc <Print>
   114e1:	eb fe                	jmp    114e1 <Get_Cursor+0x63>
   114e3:	fa                   	cli    
   114e4:	8b 15 80 fb 01 00    	mov    0x1fb80,%edx
   114ea:	8b 45 08             	mov    0x8(%ebp),%eax
   114ed:	89 10                	mov    %edx,(%eax)
   114ef:	8b 15 84 fb 01 00    	mov    0x1fb84,%edx
   114f5:	8b 45 0c             	mov    0xc(%ebp),%eax
   114f8:	89 10                	mov    %edx,(%eax)
   114fa:	e8 52 ee ff ff       	call   10351 <Interrupts_Enabled>
   114ff:	84 c0                	test   %al,%al
   11501:	74 4a                	je     1154d <Get_Cursor+0xcf>
   11503:	c7 04 24 4f 00 00 00 	movl   $0x4f,(%esp)
   1150a:	e8 e4 fb ff ff       	call   110f3 <Set_Current_Attr>
   1150f:	a1 d0 07 02 00       	mov    0x207d0,%eax
   11514:	89 44 24 18          	mov    %eax,0x18(%esp)
   11518:	8b 45 04             	mov    0x4(%ebp),%eax
   1151b:	89 44 24 14          	mov    %eax,0x14(%esp)
   1151f:	c7 44 24 10 99 00 00 	movl   $0x99,0x10(%esp)
   11526:	00 
   11527:	c7 44 24 0c 6e ce 01 	movl   $0x1ce6e,0xc(%esp)
   1152e:	00 
   1152f:	c7 44 24 08 5e cd 01 	movl   $0x1cd5e,0x8(%esp)
   11536:	00 
   11537:	c7 44 24 04 c2 d1 01 	movl   $0x1d1c2,0x4(%esp)
   1153e:	00 
   1153f:	c7 04 24 1c cc 01 00 	movl   $0x1cc1c,(%esp)
   11546:	e8 71 fa ff ff       	call   10fbc <Print>
   1154b:	eb fe                	jmp    1154b <Get_Cursor+0xcd>
   1154d:	84 db                	test   %bl,%bl
   1154f:	74 5c                	je     115ad <Get_Cursor+0x12f>
   11551:	8d b4 26 00 00 00 00 	lea    0x0(%esi,%eiz,1),%esi
   11558:	e8 f4 ed ff ff       	call   10351 <Interrupts_Enabled>
   1155d:	84 c0                	test   %al,%al
   1155f:	90                   	nop
   11560:	74 4a                	je     115ac <Get_Cursor+0x12e>
   11562:	c7 04 24 4f 00 00 00 	movl   $0x4f,(%esp)
   11569:	e8 85 fb ff ff       	call   110f3 <Set_Current_Attr>
   1156e:	a1 d0 07 02 00       	mov    0x207d0,%eax
   11573:	89 44 24 18          	mov    %eax,0x18(%esp)
   11577:	8b 45 04             	mov    0x4(%ebp),%eax
   1157a:	89 44 24 14          	mov    %eax,0x14(%esp)
   1157e:	c7 44 24 10 9c 00 00 	movl   $0x9c,0x10(%esp)
   11585:	00 
   11586:	c7 44 24 0c 6e ce 01 	movl   $0x1ce6e,0xc(%esp)
   1158d:	00 
   1158e:	c7 44 24 08 5e cd 01 	movl   $0x1cd5e,0x8(%esp)
   11595:	00 
   11596:	c7 44 24 04 c2 d1 01 	movl   $0x1d1c2,0x4(%esp)
   1159d:	00 
   1159e:	c7 04 24 1c cc 01 00 	movl   $0x1cc1c,(%esp)
   115a5:	e8 12 fa ff ff       	call   10fbc <Print>
   115aa:	eb fe                	jmp    115aa <Get_Cursor+0x12c>
   115ac:	fb                   	sti    
   115ad:	83 c4 24             	add    $0x24,%esp
   115b0:	5b                   	pop    %ebx
   115b1:	5d                   	pop    %ebp
   115b2:	c3                   	ret    

000115b3 <Clear_Screen>:
   115b3:	55                   	push   %ebp
   115b4:	89 e5                	mov    %esp,%ebp
   115b6:	53                   	push   %ebx
   115b7:	83 ec 34             	sub    $0x34,%esp
   115ba:	0f b6 05 90 fb 01 00 	movzbl 0x1fb90,%eax
   115c1:	89 c3                	mov    %eax,%ebx
   115c3:	c1 e3 18             	shl    $0x18,%ebx
   115c6:	c1 e0 08             	shl    $0x8,%eax
   115c9:	09 c3                	or     %eax,%ebx
   115cb:	81 cb 20 00 20 00    	or     $0x200020,%ebx
   115d1:	e8 7b ed ff ff       	call   10351 <Interrupts_Enabled>
   115d6:	88 45 f7             	mov    %al,-0x9(%ebp)
   115d9:	84 c0                	test   %al,%al
   115db:	74 54                	je     11631 <Clear_Screen+0x7e>
   115dd:	e8 6f ed ff ff       	call   10351 <Interrupts_Enabled>
   115e2:	84 c0                	test   %al,%al
   115e4:	75 4a                	jne    11630 <Clear_Screen+0x7d>
   115e6:	c7 04 24 4f 00 00 00 	movl   $0x4f,(%esp)
   115ed:	e8 01 fb ff ff       	call   110f3 <Set_Current_Attr>
   115f2:	a1 d0 07 02 00       	mov    0x207d0,%eax
   115f7:	89 44 24 18          	mov    %eax,0x18(%esp)
   115fb:	8b 45 04             	mov    0x4(%ebp),%eax
   115fe:	89 44 24 14          	mov    %eax,0x14(%esp)
   11602:	c7 44 24 10 8f 00 00 	movl   $0x8f,0x10(%esp)
   11609:	00 
   1160a:	c7 44 24 0c 6e ce 01 	movl   $0x1ce6e,0xc(%esp)
   11611:	00 
   11612:	c7 44 24 08 5f cd 01 	movl   $0x1cd5f,0x8(%esp)
   11619:	00 
   1161a:	c7 44 24 04 b1 d1 01 	movl   $0x1d1b1,0x4(%esp)
   11621:	00 
   11622:	c7 04 24 1c cc 01 00 	movl   $0x1cc1c,(%esp)
   11629:	e8 8e f9 ff ff       	call   10fbc <Print>
   1162e:	eb fe                	jmp    1162e <Clear_Screen+0x7b>
   11630:	fa                   	cli    
   11631:	b8 00 80 0b 00       	mov    $0xb8000,%eax
   11636:	89 18                	mov    %ebx,(%eax)
   11638:	83 c0 04             	add    $0x4,%eax
   1163b:	3d a0 8f 0b 00       	cmp    $0xb8fa0,%eax
   11640:	75 f4                	jne    11636 <Clear_Screen+0x83>
   11642:	e8 0a ed ff ff       	call   10351 <Interrupts_Enabled>
   11647:	84 c0                	test   %al,%al
   11649:	74 4a                	je     11695 <Clear_Screen+0xe2>
   1164b:	c7 04 24 4f 00 00 00 	movl   $0x4f,(%esp)
   11652:	e8 9c fa ff ff       	call   110f3 <Set_Current_Attr>
   11657:	a1 d0 07 02 00       	mov    0x207d0,%eax
   1165c:	89 44 24 18          	mov    %eax,0x18(%esp)
   11660:	8b 45 04             	mov    0x4(%ebp),%eax
   11663:	89 44 24 14          	mov    %eax,0x14(%esp)
   11667:	c7 44 24 10 99 00 00 	movl   $0x99,0x10(%esp)
   1166e:	00 
   1166f:	c7 44 24 0c 6e ce 01 	movl   $0x1ce6e,0xc(%esp)
   11676:	00 
   11677:	c7 44 24 08 5e cd 01 	movl   $0x1cd5e,0x8(%esp)
   1167e:	00 
   1167f:	c7 44 24 04 c2 d1 01 	movl   $0x1d1c2,0x4(%esp)
   11686:	00 
   11687:	c7 04 24 1c cc 01 00 	movl   $0x1cc1c,(%esp)
   1168e:	e8 29 f9 ff ff       	call   10fbc <Print>
   11693:	eb fe                	jmp    11693 <Clear_Screen+0xe0>
   11695:	80 7d f7 00          	cmpb   $0x0,-0x9(%ebp)
   11699:	74 59                	je     116f4 <Clear_Screen+0x141>
   1169b:	90                   	nop
   1169c:	8d 74 26 00          	lea    0x0(%esi,%eiz,1),%esi
   116a0:	e8 ac ec ff ff       	call   10351 <Interrupts_Enabled>
   116a5:	84 c0                	test   %al,%al
   116a7:	74 4a                	je     116f3 <Clear_Screen+0x140>
   116a9:	c7 04 24 4f 00 00 00 	movl   $0x4f,(%esp)
   116b0:	e8 3e fa ff ff       	call   110f3 <Set_Current_Attr>
   116b5:	a1 d0 07 02 00       	mov    0x207d0,%eax
   116ba:	89 44 24 18          	mov    %eax,0x18(%esp)
   116be:	8b 45 04             	mov    0x4(%ebp),%eax
   116c1:	89 44 24 14          	mov    %eax,0x14(%esp)
   116c5:	c7 44 24 10 9c 00 00 	movl   $0x9c,0x10(%esp)
   116cc:	00 
   116cd:	c7 44 24 0c 6e ce 01 	movl   $0x1ce6e,0xc(%esp)
   116d4:	00 
   116d5:	c7 44 24 08 5e cd 01 	movl   $0x1cd5e,0x8(%esp)
   116dc:	00 
   116dd:	c7 44 24 04 c2 d1 01 	movl   $0x1d1c2,0x4(%esp)
   116e4:	00 
   116e5:	c7 04 24 1c cc 01 00 	movl   $0x1cc1c,(%esp)
   116ec:	e8 cb f8 ff ff       	call   10fbc <Print>
   116f1:	eb fe                	jmp    116f1 <Clear_Screen+0x13e>
   116f3:	fb                   	sti    
   116f4:	83 c4 34             	add    $0x34,%esp
   116f7:	5b                   	pop    %ebx
   116f8:	5d                   	pop    %ebp
   116f9:	c3                   	ret    

000116fa <Put_Char_Imp>:
   116fa:	55                   	push   %ebp
   116fb:	89 e5                	mov    %esp,%ebp
   116fd:	57                   	push   %edi
   116fe:	56                   	push   %esi
   116ff:	53                   	push   %ebx
   11700:	83 ec 3c             	sub    $0x3c,%esp
   11703:	89 c3                	mov    %eax,%ebx
   11705:	be 94 fb 01 00       	mov    $0x1fb94,%esi
   1170a:	8d 78 d0             	lea    -0x30(%eax),%edi
   1170d:	83 3e 04             	cmpl   $0x4,(%esi)
   11710:	0f 87 7e 03 00 00    	ja     11a94 <Put_Char_Imp+0x39a>
   11716:	8b 06                	mov    (%esi),%eax
   11718:	ff 24 85 74 d1 01 00 	jmp    *0x1d174(,%eax,4)
   1171f:	83 fb 1b             	cmp    $0x1b,%ebx
   11722:	75 19                	jne    1173d <Put_Char_Imp+0x43>
   11724:	c7 05 94 fb 01 00 01 	movl   $0x1,0x1fb94
   1172b:	00 00 00 
   1172e:	c7 05 b8 fb 01 00 00 	movl   $0x0,0x1fbb8
   11735:	00 00 00 
   11738:	e9 a6 03 00 00       	jmp    11ae3 <Put_Char_Imp+0x3e9>
   1173d:	83 fb 09             	cmp    $0x9,%ebx
   11740:	74 15                	je     11757 <Put_Char_Imp+0x5d>
   11742:	83 fb 0a             	cmp    $0xa,%ebx
   11745:	75 3b                	jne    11782 <Put_Char_Imp+0x88>
   11747:	90                   	nop
   11748:	e8 53 f6 ff ff       	call   10da0 <Clear_To_EOL>
   1174d:	8d 76 00             	lea    0x0(%esi),%esi
   11750:	e8 94 f6 ff ff       	call   10de9 <Newline>
   11755:	eb 32                	jmp    11789 <Put_Char_Imp+0x8f>
   11757:	8b 15 84 fb 01 00    	mov    0x1fb84,%edx
   1175d:	b9 08 00 00 00       	mov    $0x8,%ecx
   11762:	89 d0                	mov    %edx,%eax
   11764:	c1 fa 1f             	sar    $0x1f,%edx
   11767:	f7 f9                	idiv   %ecx
   11769:	89 ce                	mov    %ecx,%esi
   1176b:	29 d6                	sub    %edx,%esi
   1176d:	eb 0d                	jmp    1177c <Put_Char_Imp+0x82>
   1176f:	b8 20 00 00 00       	mov    $0x20,%eax
   11774:	e8 d4 f6 ff ff       	call   10e4d <Put_Graphic_Char>
   11779:	83 ee 01             	sub    $0x1,%esi
   1177c:	85 f6                	test   %esi,%esi
   1177e:	7f ef                	jg     1176f <Put_Char_Imp+0x75>
   11780:	eb 07                	jmp    11789 <Put_Char_Imp+0x8f>
   11782:	89 d8                	mov    %ebx,%eax
   11784:	e8 c4 f6 ff ff       	call   10e4d <Put_Graphic_Char>
   11789:	0f b6 db             	movzbl %bl,%ebx
   1178c:	89 5c 24 04          	mov    %ebx,0x4(%esp)
   11790:	c7 04 24 e9 00 00 00 	movl   $0xe9,(%esp)
   11797:	e8 c0 f0 ff ff       	call   1085c <Out_Byte>
   1179c:	e9 42 03 00 00       	jmp    11ae3 <Put_Char_Imp+0x3e9>
   117a1:	83 fb 5b             	cmp    $0x5b,%ebx
   117a4:	75 0f                	jne    117b5 <Put_Char_Imp+0xbb>
   117a6:	c7 05 94 fb 01 00 02 	movl   $0x2,0x1fb94
   117ad:	00 00 00 
   117b0:	e9 2e 03 00 00       	jmp    11ae3 <Put_Char_Imp+0x3e9>
   117b5:	e8 0a f7 ff ff       	call   10ec4 <Reset>
   117ba:	e9 24 03 00 00       	jmp    11ae3 <Put_Char_Imp+0x3e9>
   117bf:	83 ff 09             	cmp    $0x9,%edi
   117c2:	77 16                	ja     117da <Put_Char_Imp+0xe0>
   117c4:	b8 00 00 00 00       	mov    $0x0,%eax
   117c9:	8d b4 26 00 00 00 00 	lea    0x0(%esi,%eiz,1),%esi
   117d0:	e8 2b fc ff ff       	call   11400 <Start_Arg>
   117d5:	e9 33 ff ff ff       	jmp    1170d <Put_Char_Imp+0x13>
   117da:	83 fb 3b             	cmp    $0x3b,%ebx
   117dd:	8d 76 00             	lea    0x0(%esi),%esi
   117e0:	75 24                	jne    11806 <Put_Char_Imp+0x10c>
   117e2:	b8 00 00 00 00       	mov    $0x0,%eax
   117e7:	90                   	nop
   117e8:	e8 13 fc ff ff       	call   11400 <Start_Arg>
   117ed:	b8 31 00 00 00       	mov    $0x31,%eax
   117f2:	e8 8a fb ff ff       	call   11381 <Add_Digit>
   117f7:	b8 01 00 00 00       	mov    $0x1,%eax
   117fc:	e8 ff fb ff ff       	call   11400 <Start_Arg>
   11801:	e9 dd 02 00 00       	jmp    11ae3 <Put_Char_Imp+0x3e9>
   11806:	c7 06 04 00 00 00    	movl   $0x4,(%esi)
   1180c:	8d 74 26 00          	lea    0x0(%esi,%eiz,1),%esi
   11810:	e9 f8 fe ff ff       	jmp    1170d <Put_Char_Imp+0x13>
   11815:	83 ff 09             	cmp    $0x9,%edi
   11818:	77 10                	ja     1182a <Put_Char_Imp+0x130>
   1181a:	89 d8                	mov    %ebx,%eax
   1181c:	8d 74 26 00          	lea    0x0(%esi,%eiz,1),%esi
   11820:	e8 5c fb ff ff       	call   11381 <Add_Digit>
   11825:	e9 b9 02 00 00       	jmp    11ae3 <Put_Char_Imp+0x3e9>
   1182a:	83 fb 3b             	cmp    $0x3b,%ebx
   1182d:	8d 76 00             	lea    0x0(%esi),%esi
   11830:	75 0f                	jne    11841 <Put_Char_Imp+0x147>
   11832:	a1 b8 fb 01 00       	mov    0x1fbb8,%eax
   11837:	e8 c4 fb ff ff       	call   11400 <Start_Arg>
   1183c:	e9 a2 02 00 00       	jmp    11ae3 <Put_Char_Imp+0x3e9>
   11841:	c7 06 04 00 00 00    	movl   $0x4,(%esi)
   11847:	e9 c1 fe ff ff       	jmp    1170d <Put_Char_Imp+0x13>
   1184c:	83 fb 4a             	cmp    $0x4a,%ebx
   1184f:	90                   	nop
   11850:	0f 84 06 02 00 00    	je     11a5c <Put_Char_Imp+0x362>
   11856:	83 fb 4a             	cmp    $0x4a,%ebx
   11859:	7f 4a                	jg     118a5 <Put_Char_Imp+0x1ab>
   1185b:	83 fb 43             	cmp    $0x43,%ebx
   1185e:	66 90                	xchg   %ax,%ax
   11860:	0f 84 0d 01 00 00    	je     11973 <Put_Char_Imp+0x279>
   11866:	83 fb 43             	cmp    $0x43,%ebx
   11869:	7f 1a                	jg     11885 <Put_Char_Imp+0x18b>
   1186b:	83 fb 41             	cmp    $0x41,%ebx
   1186e:	66 90                	xchg   %ax,%ax
   11870:	0f 84 b9 00 00 00    	je     1192f <Put_Char_Imp+0x235>
   11876:	83 fb 42             	cmp    $0x42,%ebx
   11879:	0f 85 0e 02 00 00    	jne    11a8d <Put_Char_Imp+0x393>
   1187f:	90                   	nop
   11880:	e9 ce 00 00 00       	jmp    11953 <Put_Char_Imp+0x259>
   11885:	83 fb 44             	cmp    $0x44,%ebx
   11888:	0f 84 06 01 00 00    	je     11994 <Put_Char_Imp+0x29a>
   1188e:	83 fb 48             	cmp    $0x48,%ebx
   11891:	8d b4 26 00 00 00 00 	lea    0x0(%esi,%eiz,1),%esi
   11898:	0f 85 ef 01 00 00    	jne    11a8d <Put_Char_Imp+0x393>
   1189e:	66 90                	xchg   %ax,%ax
   118a0:	e9 8b 01 00 00       	jmp    11a30 <Put_Char_Imp+0x336>
   118a5:	83 fb 6d             	cmp    $0x6d,%ebx
   118a8:	0f 84 07 01 00 00    	je     119b5 <Put_Char_Imp+0x2bb>
   118ae:	83 fb 6d             	cmp    $0x6d,%ebx
   118b1:	8d b4 26 00 00 00 00 	lea    0x0(%esi,%eiz,1),%esi
   118b8:	7f 1b                	jg     118d5 <Put_Char_Imp+0x1db>
   118ba:	83 fb 4b             	cmp    $0x4b,%ebx
   118bd:	8d 76 00             	lea    0x0(%esi),%esi
   118c0:	74 28                	je     118ea <Put_Char_Imp+0x1f0>
   118c2:	83 fb 66             	cmp    $0x66,%ebx
   118c5:	0f 85 c2 01 00 00    	jne    11a8d <Put_Char_Imp+0x393>
   118cb:	90                   	nop
   118cc:	8d 74 26 00          	lea    0x0(%esi,%eiz,1),%esi
   118d0:	e9 5b 01 00 00       	jmp    11a30 <Put_Char_Imp+0x336>
   118d5:	83 fb 73             	cmp    $0x73,%ebx
   118d8:	74 23                	je     118fd <Put_Char_Imp+0x203>
   118da:	83 fb 75             	cmp    $0x75,%ebx
   118dd:	8d 76 00             	lea    0x0(%esi),%esi
   118e0:	0f 85 a7 01 00 00    	jne    11a8d <Put_Char_Imp+0x393>
   118e6:	66 90                	xchg   %ax,%ax
   118e8:	eb 2c                	jmp    11916 <Put_Char_Imp+0x21c>
   118ea:	8d b6 00 00 00 00    	lea    0x0(%esi),%esi
   118f0:	e8 ab f4 ff ff       	call   10da0 <Clear_To_EOL>
   118f5:	8d 76 00             	lea    0x0(%esi),%esi
   118f8:	e9 90 01 00 00       	jmp    11a8d <Put_Char_Imp+0x393>
   118fd:	a1 80 fb 01 00       	mov    0x1fb80,%eax
   11902:	a3 88 fb 01 00       	mov    %eax,0x1fb88
   11907:	a1 84 fb 01 00       	mov    0x1fb84,%eax
   1190c:	a3 8c fb 01 00       	mov    %eax,0x1fb8c
   11911:	e9 77 01 00 00       	jmp    11a8d <Put_Char_Imp+0x393>
   11916:	a1 88 fb 01 00       	mov    0x1fb88,%eax
   1191b:	a3 80 fb 01 00       	mov    %eax,0x1fb80
   11920:	a1 8c fb 01 00       	mov    0x1fb8c,%eax
   11925:	a3 84 fb 01 00       	mov    %eax,0x1fb84
   1192a:	e9 5e 01 00 00       	jmp    11a8d <Put_Char_Imp+0x393>
   1192f:	b8 00 00 00 00       	mov    $0x0,%eax
   11934:	e8 a4 f5 ff ff       	call   10edd <Get_Arg>
   11939:	8b 15 80 fb 01 00    	mov    0x1fb80,%edx
   1193f:	29 c2                	sub    %eax,%edx
   11941:	89 d0                	mov    %edx,%eax
   11943:	8b 15 84 fb 01 00    	mov    0x1fb84,%edx
   11949:	e8 40 f5 ff ff       	call   10e8e <Move_Cursor>
   1194e:	e9 3a 01 00 00       	jmp    11a8d <Put_Char_Imp+0x393>
   11953:	b8 00 00 00 00       	mov    $0x0,%eax
   11958:	e8 80 f5 ff ff       	call   10edd <Get_Arg>
   1195d:	03 05 80 fb 01 00    	add    0x1fb80,%eax
   11963:	8b 15 84 fb 01 00    	mov    0x1fb84,%edx
   11969:	e8 20 f5 ff ff       	call   10e8e <Move_Cursor>
   1196e:	e9 1a 01 00 00       	jmp    11a8d <Put_Char_Imp+0x393>
   11973:	b8 00 00 00 00       	mov    $0x0,%eax
   11978:	e8 60 f5 ff ff       	call   10edd <Get_Arg>
   1197d:	89 c2                	mov    %eax,%edx
   1197f:	03 15 84 fb 01 00    	add    0x1fb84,%edx
   11985:	a1 80 fb 01 00       	mov    0x1fb80,%eax
   1198a:	e8 ff f4 ff ff       	call   10e8e <Move_Cursor>
   1198f:	e9 f9 00 00 00       	jmp    11a8d <Put_Char_Imp+0x393>
   11994:	b8 00 00 00 00       	mov    $0x0,%eax
   11999:	e8 3f f5 ff ff       	call   10edd <Get_Arg>
   1199e:	8b 15 84 fb 01 00    	mov    0x1fb84,%edx
   119a4:	29 c2                	sub    %eax,%edx
   119a6:	a1 80 fb 01 00       	mov    0x1fb80,%eax
   119ab:	e8 de f4 ff ff       	call   10e8e <Move_Cursor>
   119b0:	e9 d8 00 00 00       	jmp    11a8d <Put_Char_Imp+0x393>
   119b5:	0f b6 05 90 fb 01 00 	movzbl 0x1fb90,%eax
   119bc:	83 e0 f7             	and    $0xfffffff7,%eax
   119bf:	8b 15 b8 fb 01 00    	mov    0x1fbb8,%edx
   119c5:	89 55 e0             	mov    %edx,-0x20(%ebp)
   119c8:	b9 00 00 00 00       	mov    $0x0,%ecx
   119cd:	be 98 fb 01 00       	mov    $0x1fb98,%esi
   119d2:	bb a9 d1 01 00       	mov    $0x1d1a9,%ebx
   119d7:	eb 4b                	jmp    11a24 <Put_Char_Imp+0x32a>
   119d9:	8b 14 8e             	mov    (%esi,%ecx,4),%edx
   119dc:	85 d2                	test   %edx,%edx
   119de:	75 07                	jne    119e7 <Put_Char_Imp+0x2ed>
   119e0:	b8 07 00 00 00       	mov    $0x7,%eax
   119e5:	eb 3a                	jmp    11a21 <Put_Char_Imp+0x327>
   119e7:	83 fa 01             	cmp    $0x1,%edx
   119ea:	75 06                	jne    119f2 <Put_Char_Imp+0x2f8>
   119ec:	83 c8 08             	or     $0x8,%eax
   119ef:	90                   	nop
   119f0:	eb 2f                	jmp    11a21 <Put_Char_Imp+0x327>
   119f2:	89 55 e4             	mov    %edx,-0x1c(%ebp)
   119f5:	8d 7a e2             	lea    -0x1e(%edx),%edi
   119f8:	83 ff 07             	cmp    $0x7,%edi
   119fb:	77 0c                	ja     11a09 <Put_Char_Imp+0x30f>
   119fd:	83 e0 f8             	and    $0xfffffff8,%eax
   11a00:	0f b6 54 13 e2       	movzbl -0x1e(%ebx,%edx,1),%edx
   11a05:	09 d0                	or     %edx,%eax
   11a07:	eb 18                	jmp    11a21 <Put_Char_Imp+0x327>
   11a09:	8b 7d e4             	mov    -0x1c(%ebp),%edi
   11a0c:	83 ef 28             	sub    $0x28,%edi
   11a0f:	83 ff 07             	cmp    $0x7,%edi
   11a12:	77 0d                	ja     11a21 <Put_Char_Imp+0x327>
   11a14:	83 e0 8f             	and    $0xffffff8f,%eax
   11a17:	0f b6 54 13 d8       	movzbl -0x28(%ebx,%edx,1),%edx
   11a1c:	c1 e2 04             	shl    $0x4,%edx
   11a1f:	09 d0                	or     %edx,%eax
   11a21:	83 c1 01             	add    $0x1,%ecx
   11a24:	3b 4d e0             	cmp    -0x20(%ebp),%ecx
   11a27:	7c b0                	jl     119d9 <Put_Char_Imp+0x2df>
   11a29:	a2 90 fb 01 00       	mov    %al,0x1fb90
   11a2e:	eb 5d                	jmp    11a8d <Put_Char_Imp+0x393>
   11a30:	83 3d b8 fb 01 00 02 	cmpl   $0x2,0x1fbb8
   11a37:	75 54                	jne    11a8d <Put_Char_Imp+0x393>
   11a39:	b8 01 00 00 00       	mov    $0x1,%eax
   11a3e:	e8 9a f4 ff ff       	call   10edd <Get_Arg>
   11a43:	89 c3                	mov    %eax,%ebx
   11a45:	b8 00 00 00 00       	mov    $0x0,%eax
   11a4a:	e8 8e f4 ff ff       	call   10edd <Get_Arg>
   11a4f:	8d 53 ff             	lea    -0x1(%ebx),%edx
   11a52:	83 e8 01             	sub    $0x1,%eax
   11a55:	e8 34 f4 ff ff       	call   10e8e <Move_Cursor>
   11a5a:	eb 31                	jmp    11a8d <Put_Char_Imp+0x393>
   11a5c:	83 3d b8 fb 01 00 01 	cmpl   $0x1,0x1fbb8
   11a63:	75 28                	jne    11a8d <Put_Char_Imp+0x393>
   11a65:	b8 00 00 00 00       	mov    $0x0,%eax
   11a6a:	e8 6e f4 ff ff       	call   10edd <Get_Arg>
   11a6f:	83 f8 02             	cmp    $0x2,%eax
   11a72:	75 19                	jne    11a8d <Put_Char_Imp+0x393>
   11a74:	e8 3a fb ff ff       	call   115b3 <Clear_Screen>
   11a79:	c7 44 24 04 00 00 00 	movl   $0x0,0x4(%esp)
   11a80:	00 
   11a81:	c7 04 24 00 00 00 00 	movl   $0x0,(%esp)
   11a88:	e8 8d f7 ff ff       	call   1121a <Put_Cursor>
   11a8d:	e8 32 f4 ff ff       	call   10ec4 <Reset>
   11a92:	eb 4f                	jmp    11ae3 <Put_Char_Imp+0x3e9>
   11a94:	c7 04 24 4f 00 00 00 	movl   $0x4f,(%esp)
   11a9b:	90                   	nop
   11a9c:	8d 74 26 00          	lea    0x0(%esi,%eiz,1),%esi
   11aa0:	e8 4e f6 ff ff       	call   110f3 <Set_Current_Attr>
   11aa5:	a1 d0 07 02 00       	mov    0x207d0,%eax
   11aaa:	89 44 24 18          	mov    %eax,0x18(%esp)
   11aae:	8b 45 04             	mov    0x4(%ebp),%eax
   11ab1:	89 44 24 14          	mov    %eax,0x14(%esp)
   11ab5:	c7 44 24 10 5a 01 00 	movl   $0x15a,0x10(%esp)
   11abc:	00 
   11abd:	c7 44 24 0c 30 d1 01 	movl   $0x1d130,0xc(%esp)
   11ac4:	00 
   11ac5:	c7 44 24 08 6b d1 01 	movl   $0x1d16b,0x8(%esp)
   11acc:	00 
   11acd:	c7 44 24 04 88 d1 01 	movl   $0x1d188,0x4(%esp)
   11ad4:	00 
   11ad5:	c7 04 24 1c cc 01 00 	movl   $0x1cc1c,(%esp)
   11adc:	e8 db f4 ff ff       	call   10fbc <Print>
   11ae1:	eb fe                	jmp    11ae1 <Put_Char_Imp+0x3e7>
   11ae3:	83 c4 3c             	add    $0x3c,%esp
   11ae6:	5b                   	pop    %ebx
   11ae7:	5e                   	pop    %esi
   11ae8:	5f                   	pop    %edi
   11ae9:	5d                   	pop    %ebp
   11aea:	c3                   	ret    

00011aeb <Print_Emit>:
   11aeb:	55                   	push   %ebp
   11aec:	89 e5                	mov    %esp,%ebp
   11aee:	83 ec 08             	sub    $0x8,%esp
   11af1:	8b 45 0c             	mov    0xc(%ebp),%eax
   11af4:	e8 01 fc ff ff       	call   116fa <Put_Char_Imp>
   11af9:	c9                   	leave  
   11afa:	c3                   	ret    

00011afb <Put_Buf>:
   11afb:	55                   	push   %ebp
   11afc:	89 e5                	mov    %esp,%ebp
   11afe:	57                   	push   %edi
   11aff:	56                   	push   %esi
   11b00:	53                   	push   %ebx
   11b01:	83 ec 3c             	sub    $0x3c,%esp
   11b04:	8b 7d 08             	mov    0x8(%ebp),%edi
   11b07:	8b 75 0c             	mov    0xc(%ebp),%esi
   11b0a:	e8 42 e8 ff ff       	call   10351 <Interrupts_Enabled>
   11b0f:	88 45 e7             	mov    %al,-0x19(%ebp)
   11b12:	84 c0                	test   %al,%al
   11b14:	74 54                	je     11b6a <Put_Buf+0x6f>
   11b16:	e8 36 e8 ff ff       	call   10351 <Interrupts_Enabled>
   11b1b:	84 c0                	test   %al,%al
   11b1d:	75 4a                	jne    11b69 <Put_Buf+0x6e>
   11b1f:	c7 04 24 4f 00 00 00 	movl   $0x4f,(%esp)
   11b26:	e8 c8 f5 ff ff       	call   110f3 <Set_Current_Attr>
   11b2b:	a1 d0 07 02 00       	mov    0x207d0,%eax
   11b30:	89 44 24 18          	mov    %eax,0x18(%esp)
   11b34:	8b 45 04             	mov    0x4(%ebp),%eax
   11b37:	89 44 24 14          	mov    %eax,0x14(%esp)
   11b3b:	c7 44 24 10 8f 00 00 	movl   $0x8f,0x10(%esp)
   11b42:	00 
   11b43:	c7 44 24 0c 6e ce 01 	movl   $0x1ce6e,0xc(%esp)
   11b4a:	00 
   11b4b:	c7 44 24 08 5f cd 01 	movl   $0x1cd5f,0x8(%esp)
   11b52:	00 
   11b53:	c7 44 24 04 b1 d1 01 	movl   $0x1d1b1,0x4(%esp)
   11b5a:	00 
   11b5b:	c7 04 24 1c cc 01 00 	movl   $0x1cc1c,(%esp)
   11b62:	e8 55 f4 ff ff       	call   10fbc <Print>
   11b67:	eb fe                	jmp    11b67 <Put_Buf+0x6c>
   11b69:	fa                   	cli    
   11b6a:	85 f6                	test   %esi,%esi
   11b6c:	74 15                	je     11b83 <Put_Buf+0x88>
   11b6e:	bb 00 00 00 00       	mov    $0x0,%ebx
   11b73:	0f be 04 1f          	movsbl (%edi,%ebx,1),%eax
   11b77:	e8 7e fb ff ff       	call   116fa <Put_Char_Imp>
   11b7c:	83 c3 01             	add    $0x1,%ebx
   11b7f:	39 f3                	cmp    %esi,%ebx
   11b81:	75 f0                	jne    11b73 <Put_Buf+0x78>
   11b83:	e8 7c f3 ff ff       	call   10f04 <Update_Cursor>
   11b88:	e8 c4 e7 ff ff       	call   10351 <Interrupts_Enabled>
   11b8d:	84 c0                	test   %al,%al
   11b8f:	90                   	nop
   11b90:	74 4a                	je     11bdc <Put_Buf+0xe1>
   11b92:	c7 04 24 4f 00 00 00 	movl   $0x4f,(%esp)
   11b99:	e8 55 f5 ff ff       	call   110f3 <Set_Current_Attr>
   11b9e:	a1 d0 07 02 00       	mov    0x207d0,%eax
   11ba3:	89 44 24 18          	mov    %eax,0x18(%esp)
   11ba7:	8b 45 04             	mov    0x4(%ebp),%eax
   11baa:	89 44 24 14          	mov    %eax,0x14(%esp)
   11bae:	c7 44 24 10 99 00 00 	movl   $0x99,0x10(%esp)
   11bb5:	00 
   11bb6:	c7 44 24 0c 6e ce 01 	movl   $0x1ce6e,0xc(%esp)
   11bbd:	00 
   11bbe:	c7 44 24 08 5e cd 01 	movl   $0x1cd5e,0x8(%esp)
   11bc5:	00 
   11bc6:	c7 44 24 04 c2 d1 01 	movl   $0x1d1c2,0x4(%esp)
   11bcd:	00 
   11bce:	c7 04 24 1c cc 01 00 	movl   $0x1cc1c,(%esp)
   11bd5:	e8 e2 f3 ff ff       	call   10fbc <Print>
   11bda:	eb fe                	jmp    11bda <Put_Buf+0xdf>
   11bdc:	80 7d e7 00          	cmpb   $0x0,-0x19(%ebp)
   11be0:	74 5b                	je     11c3d <Put_Buf+0x142>
   11be2:	8d b6 00 00 00 00    	lea    0x0(%esi),%esi
   11be8:	e8 64 e7 ff ff       	call   10351 <Interrupts_Enabled>
   11bed:	84 c0                	test   %al,%al
   11bef:	90                   	nop
   11bf0:	74 4a                	je     11c3c <Put_Buf+0x141>
   11bf2:	c7 04 24 4f 00 00 00 	movl   $0x4f,(%esp)
   11bf9:	e8 f5 f4 ff ff       	call   110f3 <Set_Current_Attr>
   11bfe:	a1 d0 07 02 00       	mov    0x207d0,%eax
   11c03:	89 44 24 18          	mov    %eax,0x18(%esp)
   11c07:	8b 45 04             	mov    0x4(%ebp),%eax
   11c0a:	89 44 24 14          	mov    %eax,0x14(%esp)
   11c0e:	c7 44 24 10 9c 00 00 	movl   $0x9c,0x10(%esp)
   11c15:	00 
   11c16:	c7 44 24 0c 6e ce 01 	movl   $0x1ce6e,0xc(%esp)
   11c1d:	00 
   11c1e:	c7 44 24 08 5e cd 01 	movl   $0x1cd5e,0x8(%esp)
   11c25:	00 
   11c26:	c7 44 24 04 c2 d1 01 	movl   $0x1d1c2,0x4(%esp)
   11c2d:	00 
   11c2e:	c7 04 24 1c cc 01 00 	movl   $0x1cc1c,(%esp)
   11c35:	e8 82 f3 ff ff       	call   10fbc <Print>
   11c3a:	eb fe                	jmp    11c3a <Put_Buf+0x13f>
   11c3c:	fb                   	sti    
   11c3d:	83 c4 3c             	add    $0x3c,%esp
   11c40:	5b                   	pop    %ebx
   11c41:	5e                   	pop    %esi
   11c42:	5f                   	pop    %edi
   11c43:	5d                   	pop    %ebp
   11c44:	c3                   	ret    

00011c45 <Put_String>:
   11c45:	55                   	push   %ebp
   11c46:	89 e5                	mov    %esp,%ebp
   11c48:	53                   	push   %ebx
   11c49:	83 ec 34             	sub    $0x34,%esp
   11c4c:	8b 5d 08             	mov    0x8(%ebp),%ebx
   11c4f:	e8 fd e6 ff ff       	call   10351 <Interrupts_Enabled>
   11c54:	88 45 f7             	mov    %al,-0x9(%ebp)
   11c57:	84 c0                	test   %al,%al
   11c59:	74 54                	je     11caf <Put_String+0x6a>
   11c5b:	e8 f1 e6 ff ff       	call   10351 <Interrupts_Enabled>
   11c60:	84 c0                	test   %al,%al
   11c62:	75 4a                	jne    11cae <Put_String+0x69>
   11c64:	c7 04 24 4f 00 00 00 	movl   $0x4f,(%esp)
   11c6b:	e8 83 f4 ff ff       	call   110f3 <Set_Current_Attr>
   11c70:	a1 d0 07 02 00       	mov    0x207d0,%eax
   11c75:	89 44 24 18          	mov    %eax,0x18(%esp)
   11c79:	8b 45 04             	mov    0x4(%ebp),%eax
   11c7c:	89 44 24 14          	mov    %eax,0x14(%esp)
   11c80:	c7 44 24 10 8f 00 00 	movl   $0x8f,0x10(%esp)
   11c87:	00 
   11c88:	c7 44 24 0c 6e ce 01 	movl   $0x1ce6e,0xc(%esp)
   11c8f:	00 
   11c90:	c7 44 24 08 5f cd 01 	movl   $0x1cd5f,0x8(%esp)
   11c97:	00 
   11c98:	c7 44 24 04 b1 d1 01 	movl   $0x1d1b1,0x4(%esp)
   11c9f:	00 
   11ca0:	c7 04 24 1c cc 01 00 	movl   $0x1cc1c,(%esp)
   11ca7:	e8 10 f3 ff ff       	call   10fbc <Print>
   11cac:	eb fe                	jmp    11cac <Put_String+0x67>
   11cae:	fa                   	cli    
   11caf:	0f b6 03             	movzbl (%ebx),%eax
   11cb2:	84 c0                	test   %al,%al
   11cb4:	74 12                	je     11cc8 <Put_String+0x83>
   11cb6:	83 c3 01             	add    $0x1,%ebx
   11cb9:	0f be c0             	movsbl %al,%eax
   11cbc:	e8 39 fa ff ff       	call   116fa <Put_Char_Imp>
   11cc1:	0f b6 03             	movzbl (%ebx),%eax
   11cc4:	84 c0                	test   %al,%al
   11cc6:	75 ee                	jne    11cb6 <Put_String+0x71>
   11cc8:	e8 37 f2 ff ff       	call   10f04 <Update_Cursor>
   11ccd:	e8 7f e6 ff ff       	call   10351 <Interrupts_Enabled>
   11cd2:	84 c0                	test   %al,%al
   11cd4:	74 4a                	je     11d20 <Put_String+0xdb>
   11cd6:	c7 04 24 4f 00 00 00 	movl   $0x4f,(%esp)
   11cdd:	e8 11 f4 ff ff       	call   110f3 <Set_Current_Attr>
   11ce2:	a1 d0 07 02 00       	mov    0x207d0,%eax
   11ce7:	89 44 24 18          	mov    %eax,0x18(%esp)
   11ceb:	8b 45 04             	mov    0x4(%ebp),%eax
   11cee:	89 44 24 14          	mov    %eax,0x14(%esp)
   11cf2:	c7 44 24 10 99 00 00 	movl   $0x99,0x10(%esp)
   11cf9:	00 
   11cfa:	c7 44 24 0c 6e ce 01 	movl   $0x1ce6e,0xc(%esp)
   11d01:	00 
   11d02:	c7 44 24 08 5e cd 01 	movl   $0x1cd5e,0x8(%esp)
   11d09:	00 
   11d0a:	c7 44 24 04 c2 d1 01 	movl   $0x1d1c2,0x4(%esp)
   11d11:	00 
   11d12:	c7 04 24 1c cc 01 00 	movl   $0x1cc1c,(%esp)
   11d19:	e8 9e f2 ff ff       	call   10fbc <Print>
   11d1e:	eb fe                	jmp    11d1e <Put_String+0xd9>
   11d20:	80 7d f7 00          	cmpb   $0x0,-0x9(%ebp)
   11d24:	74 57                	je     11d7d <Put_String+0x138>
   11d26:	66 90                	xchg   %ax,%ax
   11d28:	e8 24 e6 ff ff       	call   10351 <Interrupts_Enabled>
   11d2d:	84 c0                	test   %al,%al
   11d2f:	90                   	nop
   11d30:	74 4a                	je     11d7c <Put_String+0x137>
   11d32:	c7 04 24 4f 00 00 00 	movl   $0x4f,(%esp)
   11d39:	e8 b5 f3 ff ff       	call   110f3 <Set_Current_Attr>
   11d3e:	a1 d0 07 02 00       	mov    0x207d0,%eax
   11d43:	89 44 24 18          	mov    %eax,0x18(%esp)
   11d47:	8b 45 04             	mov    0x4(%ebp),%eax
   11d4a:	89 44 24 14          	mov    %eax,0x14(%esp)
   11d4e:	c7 44 24 10 9c 00 00 	movl   $0x9c,0x10(%esp)
   11d55:	00 
   11d56:	c7 44 24 0c 6e ce 01 	movl   $0x1ce6e,0xc(%esp)
   11d5d:	00 
   11d5e:	c7 44 24 08 5e cd 01 	movl   $0x1cd5e,0x8(%esp)
   11d65:	00 
   11d66:	c7 44 24 04 c2 d1 01 	movl   $0x1d1c2,0x4(%esp)
   11d6d:	00 
   11d6e:	c7 04 24 1c cc 01 00 	movl   $0x1cc1c,(%esp)
   11d75:	e8 42 f2 ff ff       	call   10fbc <Print>
   11d7a:	eb fe                	jmp    11d7a <Put_String+0x135>
   11d7c:	fb                   	sti    
   11d7d:	83 c4 34             	add    $0x34,%esp
   11d80:	5b                   	pop    %ebx
   11d81:	5d                   	pop    %ebp
   11d82:	c3                   	ret    

00011d83 <Put_Char>:
   11d83:	55                   	push   %ebp
   11d84:	89 e5                	mov    %esp,%ebp
   11d86:	53                   	push   %ebx
   11d87:	83 ec 24             	sub    $0x24,%esp
   11d8a:	e8 c2 e5 ff ff       	call   10351 <Interrupts_Enabled>
   11d8f:	89 c3                	mov    %eax,%ebx
   11d91:	84 c0                	test   %al,%al
   11d93:	74 54                	je     11de9 <Put_Char+0x66>
   11d95:	e8 b7 e5 ff ff       	call   10351 <Interrupts_Enabled>
   11d9a:	84 c0                	test   %al,%al
   11d9c:	75 4a                	jne    11de8 <Put_Char+0x65>
   11d9e:	c7 04 24 4f 00 00 00 	movl   $0x4f,(%esp)
   11da5:	e8 49 f3 ff ff       	call   110f3 <Set_Current_Attr>
   11daa:	a1 d0 07 02 00       	mov    0x207d0,%eax
   11daf:	89 44 24 18          	mov    %eax,0x18(%esp)
   11db3:	8b 45 04             	mov    0x4(%ebp),%eax
   11db6:	89 44 24 14          	mov    %eax,0x14(%esp)
   11dba:	c7 44 24 10 8f 00 00 	movl   $0x8f,0x10(%esp)
   11dc1:	00 
   11dc2:	c7 44 24 0c 6e ce 01 	movl   $0x1ce6e,0xc(%esp)
   11dc9:	00 
   11dca:	c7 44 24 08 5f cd 01 	movl   $0x1cd5f,0x8(%esp)
   11dd1:	00 
   11dd2:	c7 44 24 04 b1 d1 01 	movl   $0x1d1b1,0x4(%esp)
   11dd9:	00 
   11dda:	c7 04 24 1c cc 01 00 	movl   $0x1cc1c,(%esp)
   11de1:	e8 d6 f1 ff ff       	call   10fbc <Print>
   11de6:	eb fe                	jmp    11de6 <Put_Char+0x63>
   11de8:	fa                   	cli    
   11de9:	8b 45 08             	mov    0x8(%ebp),%eax
   11dec:	e8 09 f9 ff ff       	call   116fa <Put_Char_Imp>
   11df1:	e8 0e f1 ff ff       	call   10f04 <Update_Cursor>
   11df6:	e8 56 e5 ff ff       	call   10351 <Interrupts_Enabled>
   11dfb:	84 c0                	test   %al,%al
   11dfd:	8d 76 00             	lea    0x0(%esi),%esi
   11e00:	74 4a                	je     11e4c <Put_Char+0xc9>
   11e02:	c7 04 24 4f 00 00 00 	movl   $0x4f,(%esp)
   11e09:	e8 e5 f2 ff ff       	call   110f3 <Set_Current_Attr>
   11e0e:	a1 d0 07 02 00       	mov    0x207d0,%eax
   11e13:	89 44 24 18          	mov    %eax,0x18(%esp)
   11e17:	8b 45 04             	mov    0x4(%ebp),%eax
   11e1a:	89 44 24 14          	mov    %eax,0x14(%esp)
   11e1e:	c7 44 24 10 99 00 00 	movl   $0x99,0x10(%esp)
   11e25:	00 
   11e26:	c7 44 24 0c 6e ce 01 	movl   $0x1ce6e,0xc(%esp)
   11e2d:	00 
   11e2e:	c7 44 24 08 5e cd 01 	movl   $0x1cd5e,0x8(%esp)
   11e35:	00 
   11e36:	c7 44 24 04 c2 d1 01 	movl   $0x1d1c2,0x4(%esp)
   11e3d:	00 
   11e3e:	c7 04 24 1c cc 01 00 	movl   $0x1cc1c,(%esp)
   11e45:	e8 72 f1 ff ff       	call   10fbc <Print>
   11e4a:	eb fe                	jmp    11e4a <Put_Char+0xc7>
   11e4c:	84 db                	test   %bl,%bl
   11e4e:	74 54                	je     11ea4 <Put_Char+0x121>
   11e50:	e8 fc e4 ff ff       	call   10351 <Interrupts_Enabled>
   11e55:	84 c0                	test   %al,%al
   11e57:	74 4a                	je     11ea3 <Put_Char+0x120>
   11e59:	c7 04 24 4f 00 00 00 	movl   $0x4f,(%esp)
   11e60:	e8 8e f2 ff ff       	call   110f3 <Set_Current_Attr>
   11e65:	a1 d0 07 02 00       	mov    0x207d0,%eax
   11e6a:	89 44 24 18          	mov    %eax,0x18(%esp)
   11e6e:	8b 45 04             	mov    0x4(%ebp),%eax
   11e71:	89 44 24 14          	mov    %eax,0x14(%esp)
   11e75:	c7 44 24 10 9c 00 00 	movl   $0x9c,0x10(%esp)
   11e7c:	00 
   11e7d:	c7 44 24 0c 6e ce 01 	movl   $0x1ce6e,0xc(%esp)
   11e84:	00 
   11e85:	c7 44 24 08 5e cd 01 	movl   $0x1cd5e,0x8(%esp)
   11e8c:	00 
   11e8d:	c7 44 24 04 c2 d1 01 	movl   $0x1d1c2,0x4(%esp)
   11e94:	00 
   11e95:	c7 04 24 1c cc 01 00 	movl   $0x1cc1c,(%esp)
   11e9c:	e8 1b f1 ff ff       	call   10fbc <Print>
   11ea1:	eb fe                	jmp    11ea1 <Put_Char+0x11e>
   11ea3:	fb                   	sti    
   11ea4:	83 c4 24             	add    $0x24,%esp
   11ea7:	5b                   	pop    %ebx
   11ea8:	5d                   	pop    %ebp
   11ea9:	c3                   	ret    

00011eaa <Init_Screen>:
   11eaa:	55                   	push   %ebp
   11eab:	89 e5                	mov    %esp,%ebp
   11ead:	53                   	push   %ebx
   11eae:	83 ec 24             	sub    $0x24,%esp
   11eb1:	e8 9b e4 ff ff       	call   10351 <Interrupts_Enabled>
   11eb6:	89 c3                	mov    %eax,%ebx
   11eb8:	84 c0                	test   %al,%al
   11eba:	74 54                	je     11f10 <Init_Screen+0x66>
   11ebc:	e8 90 e4 ff ff       	call   10351 <Interrupts_Enabled>
   11ec1:	84 c0                	test   %al,%al
   11ec3:	75 4a                	jne    11f0f <Init_Screen+0x65>
   11ec5:	c7 04 24 4f 00 00 00 	movl   $0x4f,(%esp)
   11ecc:	e8 22 f2 ff ff       	call   110f3 <Set_Current_Attr>
   11ed1:	a1 d0 07 02 00       	mov    0x207d0,%eax
   11ed6:	89 44 24 18          	mov    %eax,0x18(%esp)
   11eda:	8b 45 04             	mov    0x4(%ebp),%eax
   11edd:	89 44 24 14          	mov    %eax,0x14(%esp)
   11ee1:	c7 44 24 10 8f 00 00 	movl   $0x8f,0x10(%esp)
   11ee8:	00 
   11ee9:	c7 44 24 0c 6e ce 01 	movl   $0x1ce6e,0xc(%esp)
   11ef0:	00 
   11ef1:	c7 44 24 08 5f cd 01 	movl   $0x1cd5f,0x8(%esp)
   11ef8:	00 
   11ef9:	c7 44 24 04 b1 d1 01 	movl   $0x1d1b1,0x4(%esp)
   11f00:	00 
   11f01:	c7 04 24 1c cc 01 00 	movl   $0x1cc1c,(%esp)
   11f08:	e8 af f0 ff ff       	call   10fbc <Print>
   11f0d:	eb fe                	jmp    11f0d <Init_Screen+0x63>
   11f0f:	fa                   	cli    
   11f10:	c7 05 84 fb 01 00 00 	movl   $0x0,0x1fb84
   11f17:	00 00 00 
   11f1a:	c7 05 80 fb 01 00 00 	movl   $0x0,0x1fb80
   11f21:	00 00 00 
   11f24:	c6 05 90 fb 01 00 07 	movb   $0x7,0x1fb90
   11f2b:	e8 83 f6 ff ff       	call   115b3 <Clear_Screen>
   11f30:	e8 1c e4 ff ff       	call   10351 <Interrupts_Enabled>
   11f35:	84 c0                	test   %al,%al
   11f37:	74 4a                	je     11f83 <Init_Screen+0xd9>
   11f39:	c7 04 24 4f 00 00 00 	movl   $0x4f,(%esp)
   11f40:	e8 ae f1 ff ff       	call   110f3 <Set_Current_Attr>
   11f45:	a1 d0 07 02 00       	mov    0x207d0,%eax
   11f4a:	89 44 24 18          	mov    %eax,0x18(%esp)
   11f4e:	8b 45 04             	mov    0x4(%ebp),%eax
   11f51:	89 44 24 14          	mov    %eax,0x14(%esp)
   11f55:	c7 44 24 10 99 00 00 	movl   $0x99,0x10(%esp)
   11f5c:	00 
   11f5d:	c7 44 24 0c 6e ce 01 	movl   $0x1ce6e,0xc(%esp)
   11f64:	00 
   11f65:	c7 44 24 08 5e cd 01 	movl   $0x1cd5e,0x8(%esp)
   11f6c:	00 
   11f6d:	c7 44 24 04 c2 d1 01 	movl   $0x1d1c2,0x4(%esp)
   11f74:	00 
   11f75:	c7 04 24 1c cc 01 00 	movl   $0x1cc1c,(%esp)
   11f7c:	e8 3b f0 ff ff       	call   10fbc <Print>
   11f81:	eb fe                	jmp    11f81 <Init_Screen+0xd7>
   11f83:	84 db                	test   %bl,%bl
   11f85:	74 5d                	je     11fe4 <Init_Screen+0x13a>
   11f87:	89 f6                	mov    %esi,%esi
   11f89:	8d bc 27 00 00 00 00 	lea    0x0(%edi,%eiz,1),%edi
   11f90:	e8 bc e3 ff ff       	call   10351 <Interrupts_Enabled>
   11f95:	84 c0                	test   %al,%al
   11f97:	74 4a                	je     11fe3 <Init_Screen+0x139>
   11f99:	c7 04 24 4f 00 00 00 	movl   $0x4f,(%esp)
   11fa0:	e8 4e f1 ff ff       	call   110f3 <Set_Current_Attr>
   11fa5:	a1 d0 07 02 00       	mov    0x207d0,%eax
   11faa:	89 44 24 18          	mov    %eax,0x18(%esp)
   11fae:	8b 45 04             	mov    0x4(%ebp),%eax
   11fb1:	89 44 24 14          	mov    %eax,0x14(%esp)
   11fb5:	c7 44 24 10 9c 00 00 	movl   $0x9c,0x10(%esp)
   11fbc:	00 
   11fbd:	c7 44 24 0c 6e ce 01 	movl   $0x1ce6e,0xc(%esp)
   11fc4:	00 
   11fc5:	c7 44 24 08 5e cd 01 	movl   $0x1cd5e,0x8(%esp)
   11fcc:	00 
   11fcd:	c7 44 24 04 c2 d1 01 	movl   $0x1d1c2,0x4(%esp)
   11fd4:	00 
   11fd5:	c7 04 24 1c cc 01 00 	movl   $0x1cc1c,(%esp)
   11fdc:	e8 db ef ff ff       	call   10fbc <Print>
   11fe1:	eb fe                	jmp    11fe1 <Init_Screen+0x137>
   11fe3:	fb                   	sti    
   11fe4:	83 c4 24             	add    $0x24,%esp
   11fe7:	5b                   	pop    %ebx
   11fe8:	5d                   	pop    %ebp
   11fe9:	c3                   	ret    
   11fea:	90                   	nop
   11feb:	90                   	nop

00011fec <Spin>:
   11fec:	55                   	push   %ebp
   11fed:	89 e5                	mov    %esp,%ebp
   11fef:	48                   	dec    %eax
   11ff0:	83 f8 00             	cmp    $0x0,%eax
   11ff3:	90                   	nop
   11ff4:	90                   	nop
   11ff5:	90                   	nop
   11ff6:	90                   	nop
   11ff7:	90                   	nop
   11ff8:	90                   	nop
   11ff9:	90                   	nop
   11ffa:	90                   	nop
   11ffb:	90                   	nop
   11ffc:	90                   	nop
   11ffd:	90                   	nop
   11ffe:	90                   	nop
   11fff:	7f ee                	jg     11fef <Spin+0x3>
   12001:	5d                   	pop    %ebp
   12002:	c3                   	ret    

00012003 <Micro_Delay>:
   12003:	55                   	push   %ebp
   12004:	89 e5                	mov    %esp,%ebp
   12006:	53                   	push   %ebx
   12007:	8b 4d 08             	mov    0x8(%ebp),%ecx
   1200a:	0f af 0d bc fb 01 00 	imul   0x1fbbc,%ecx
   12011:	ba 5b fd 4d 77       	mov    $0x774dfd5b,%edx
   12016:	89 c8                	mov    %ecx,%eax
   12018:	f7 ea                	imul   %edx
   1201a:	c1 fa 17             	sar    $0x17,%edx
   1201d:	89 cb                	mov    %ecx,%ebx
   1201f:	c1 fb 1f             	sar    $0x1f,%ebx
   12022:	89 d0                	mov    %edx,%eax
   12024:	29 d8                	sub    %ebx,%eax
   12026:	69 d0 80 a8 12 01    	imul   $0x112a880,%eax,%edx
   1202c:	29 d1                	sub    %edx,%ecx
   1202e:	85 c9                	test   %ecx,%ecx
   12030:	0f 9f c2             	setg   %dl
   12033:	0f b6 d2             	movzbl %dl,%edx
   12036:	01 d0                	add    %edx,%eax
   12038:	e8 af ff ff ff       	call   11fec <Spin>
   1203d:	5b                   	pop    %ebx
   1203e:	5d                   	pop    %ebp
   1203f:	c3                   	ret    

00012040 <Init_Timer>:
   12040:	55                   	push   %ebp
   12041:	89 e5                	mov    %esp,%ebp
   12043:	83 ec 28             	sub    $0x28,%esp
   12046:	c7 04 24 d1 d1 01 00 	movl   $0x1d1d1,(%esp)
   1204d:	e8 6a ef ff ff       	call   10fbc <Print>
   12052:	e8 fa e2 ff ff       	call   10351 <Interrupts_Enabled>
   12057:	84 c0                	test   %al,%al
   12059:	75 4a                	jne    120a5 <Init_Timer+0x65>
   1205b:	c7 04 24 4f 00 00 00 	movl   $0x4f,(%esp)
   12062:	e8 8c f0 ff ff       	call   110f3 <Set_Current_Attr>
   12067:	a1 d0 07 02 00       	mov    0x207d0,%eax
   1206c:	89 44 24 18          	mov    %eax,0x18(%esp)
   12070:	8b 45 04             	mov    0x4(%ebp),%eax
   12073:	89 44 24 14          	mov    %eax,0x14(%esp)
   12077:	c7 44 24 10 8a 00 00 	movl   $0x8a,0x10(%esp)
   1207e:	00 
   1207f:	c7 44 24 0c e8 d1 01 	movl   $0x1d1e8,0xc(%esp)
   12086:	00 
   12087:	c7 44 24 08 5f cd 01 	movl   $0x1cd5f,0x8(%esp)
   1208e:	00 
   1208f:	c7 44 24 04 24 d2 01 	movl   $0x1d224,0x4(%esp)
   12096:	00 
   12097:	c7 04 24 1c cc 01 00 	movl   $0x1cc1c,(%esp)
   1209e:	e8 19 ef ff ff       	call   10fbc <Print>
   120a3:	eb fe                	jmp    120a3 <Init_Timer+0x63>
   120a5:	fa                   	cli    
   120a6:	c7 44 24 04 19 22 01 	movl   $0x12219,0x4(%esp)
   120ad:	00 
   120ae:	c7 04 24 00 00 00 00 	movl   $0x0,(%esp)
   120b5:	e8 65 e4 ff ff       	call   1051f <Install_IRQ>
   120ba:	c7 04 24 00 00 00 00 	movl   $0x0,(%esp)
   120c1:	e8 76 e4 ff ff       	call   1053c <Enable_IRQ>
   120c6:	e8 86 e2 ff ff       	call   10351 <Interrupts_Enabled>
   120cb:	84 c0                	test   %al,%al
   120cd:	74 4a                	je     12119 <Init_Timer+0xd9>
   120cf:	c7 04 24 4f 00 00 00 	movl   $0x4f,(%esp)
   120d6:	e8 18 f0 ff ff       	call   110f3 <Set_Current_Attr>
   120db:	a1 d0 07 02 00       	mov    0x207d0,%eax
   120e0:	89 44 24 18          	mov    %eax,0x18(%esp)
   120e4:	8b 45 04             	mov    0x4(%ebp),%eax
   120e7:	89 44 24 14          	mov    %eax,0x14(%esp)
   120eb:	c7 44 24 10 90 00 00 	movl   $0x90,0x10(%esp)
   120f2:	00 
   120f3:	c7 44 24 0c e8 d1 01 	movl   $0x1d1e8,0xc(%esp)
   120fa:	00 
   120fb:	c7 44 24 08 5e cd 01 	movl   $0x1cd5e,0x8(%esp)
   12102:	00 
   12103:	c7 44 24 04 24 d2 01 	movl   $0x1d224,0x4(%esp)
   1210a:	00 
   1210b:	c7 04 24 1c cc 01 00 	movl   $0x1cc1c,(%esp)
   12112:	e8 a5 ee ff ff       	call   10fbc <Print>
   12117:	eb fe                	jmp    12117 <Init_Timer+0xd7>
   12119:	fb                   	sti    
   1211a:	a1 c0 07 02 00       	mov    0x207c0,%eax
   1211f:	83 f8 02             	cmp    $0x2,%eax
   12122:	76 f6                	jbe    1211a <Init_Timer+0xda>
   12124:	b8 ff ff ff 7f       	mov    $0x7fffffff,%eax
   12129:	e8 be fe ff ff       	call   11fec <Spin>
   1212e:	e8 1e e2 ff ff       	call   10351 <Interrupts_Enabled>
   12133:	84 c0                	test   %al,%al
   12135:	75 4a                	jne    12181 <Init_Timer+0x141>
   12137:	c7 04 24 4f 00 00 00 	movl   $0x4f,(%esp)
   1213e:	e8 b0 ef ff ff       	call   110f3 <Set_Current_Attr>
   12143:	a1 d0 07 02 00       	mov    0x207d0,%eax
   12148:	89 44 24 18          	mov    %eax,0x18(%esp)
   1214c:	8b 45 04             	mov    0x4(%ebp),%eax
   1214f:	89 44 24 14          	mov    %eax,0x14(%esp)
   12153:	c7 44 24 10 9d 00 00 	movl   $0x9d,0x10(%esp)
   1215a:	00 
   1215b:	c7 44 24 0c e8 d1 01 	movl   $0x1d1e8,0xc(%esp)
   12162:	00 
   12163:	c7 44 24 08 5f cd 01 	movl   $0x1cd5f,0x8(%esp)
   1216a:	00 
   1216b:	c7 44 24 04 24 d2 01 	movl   $0x1d224,0x4(%esp)
   12172:	00 
   12173:	c7 04 24 1c cc 01 00 	movl   $0x1cc1c,(%esp)
   1217a:	e8 3d ee ff ff       	call   10fbc <Print>
   1217f:	eb fe                	jmp    1217f <Init_Timer+0x13f>
   12181:	fa                   	cli    
   12182:	c7 04 24 00 00 00 00 	movl   $0x0,(%esp)
   12189:	e8 3c e5 ff ff       	call   106ca <Disable_IRQ>
   1218e:	e8 be e1 ff ff       	call   10351 <Interrupts_Enabled>
   12193:	84 c0                	test   %al,%al
   12195:	74 4a                	je     121e1 <Init_Timer+0x1a1>
   12197:	c7 04 24 4f 00 00 00 	movl   $0x4f,(%esp)
   1219e:	e8 50 ef ff ff       	call   110f3 <Set_Current_Attr>
   121a3:	a1 d0 07 02 00       	mov    0x207d0,%eax
   121a8:	89 44 24 18          	mov    %eax,0x18(%esp)
   121ac:	8b 45 04             	mov    0x4(%ebp),%eax
   121af:	89 44 24 14          	mov    %eax,0x14(%esp)
   121b3:	c7 44 24 10 a4 00 00 	movl   $0xa4,0x10(%esp)
   121ba:	00 
   121bb:	c7 44 24 0c e8 d1 01 	movl   $0x1d1e8,0xc(%esp)
   121c2:	00 
   121c3:	c7 44 24 08 5e cd 01 	movl   $0x1cd5e,0x8(%esp)
   121ca:	00 
   121cb:	c7 44 24 04 24 d2 01 	movl   $0x1d224,0x4(%esp)
   121d2:	00 
   121d3:	c7 04 24 1c cc 01 00 	movl   $0x1cc1c,(%esp)
   121da:	e8 dd ed ff ff       	call   10fbc <Print>
   121df:	eb fe                	jmp    121df <Init_Timer+0x19f>
   121e1:	fb                   	sti    
   121e2:	a1 bc fb 01 00       	mov    0x1fbbc,%eax
   121e7:	89 44 24 04          	mov    %eax,0x4(%esp)
   121eb:	c7 04 24 00 d2 01 00 	movl   $0x1d200,(%esp)
   121f2:	e8 c5 ed ff ff       	call   10fbc <Print>
   121f7:	c7 44 24 04 66 22 01 	movl   $0x12266,0x4(%esp)
   121fe:	00 
   121ff:	c7 04 24 00 00 00 00 	movl   $0x0,(%esp)
   12206:	e8 14 e3 ff ff       	call   1051f <Install_IRQ>
   1220b:	c7 04 24 00 00 00 00 	movl   $0x0,(%esp)
   12212:	e8 25 e3 ff ff       	call   1053c <Enable_IRQ>
   12217:	c9                   	leave  
   12218:	c3                   	ret    

00012219 <Timer_Calibrate>:
   12219:	55                   	push   %ebp
   1221a:	89 e5                	mov    %esp,%ebp
   1221c:	53                   	push   %ebx
   1221d:	83 ec 14             	sub    $0x14,%esp
   12220:	8b 5d 08             	mov    0x8(%ebp),%ebx
   12223:	89 1c 24             	mov    %ebx,(%esp)
   12226:	e8 41 e2 ff ff       	call   1046c <Begin_IRQ>
   1222b:	a1 c0 07 02 00       	mov    0x207c0,%eax
   12230:	83 f8 02             	cmp    $0x2,%eax
   12233:	77 0f                	ja     12244 <Timer_Calibrate+0x2b>
   12235:	a1 c0 07 02 00       	mov    0x207c0,%eax
   1223a:	83 c0 01             	add    $0x1,%eax
   1223d:	a3 c0 07 02 00       	mov    %eax,0x207c0
   12242:	eb 14                	jmp    12258 <Timer_Calibrate+0x3f>
   12244:	b8 ff ff ff 7f       	mov    $0x7fffffff,%eax
   12249:	2b 43 28             	sub    0x28(%ebx),%eax
   1224c:	a3 bc fb 01 00       	mov    %eax,0x1fbbc
   12251:	c7 43 28 00 00 00 00 	movl   $0x0,0x28(%ebx)
   12258:	89 1c 24             	mov    %ebx,(%esp)
   1225b:	e8 11 e2 ff ff       	call   10471 <End_IRQ>
   12260:	83 c4 14             	add    $0x14,%esp
   12263:	5b                   	pop    %ebx
   12264:	5d                   	pop    %ebp
   12265:	c3                   	ret    

00012266 <Timer_Interrupt_Handler>:
   12266:	55                   	push   %ebp
   12267:	89 e5                	mov    %esp,%ebp
   12269:	83 ec 18             	sub    $0x18,%esp
   1226c:	89 5d f8             	mov    %ebx,-0x8(%ebp)
   1226f:	89 75 fc             	mov    %esi,-0x4(%ebp)
   12272:	8b 75 08             	mov    0x8(%ebp),%esi
   12275:	8b 1d d0 07 02 00    	mov    0x207d0,%ebx
   1227b:	89 34 24             	mov    %esi,(%esp)
   1227e:	e8 e9 e1 ff ff       	call   1046c <Begin_IRQ>
   12283:	a1 c0 07 02 00       	mov    0x207c0,%eax
   12288:	83 c0 01             	add    $0x1,%eax
   1228b:	a3 c0 07 02 00       	mov    %eax,0x207c0
   12290:	8b 43 04             	mov    0x4(%ebx),%eax
   12293:	83 c0 01             	add    $0x1,%eax
   12296:	89 43 04             	mov    %eax,0x4(%ebx)
   12299:	8b 43 04             	mov    0x4(%ebx),%eax
   1229c:	3b 05 0c f0 01 00    	cmp    0x1f00c,%eax
   122a2:	72 0a                	jb     122ae <Timer_Interrupt_Handler+0x48>
   122a4:	c7 05 d4 07 02 00 01 	movl   $0x1,0x207d4
   122ab:	00 00 00 
   122ae:	89 34 24             	mov    %esi,(%esp)
   122b1:	e8 bb e1 ff ff       	call   10471 <End_IRQ>
   122b6:	8b 5d f8             	mov    -0x8(%ebp),%ebx
   122b9:	8b 75 fc             	mov    -0x4(%ebp),%esi
   122bc:	89 ec                	mov    %ebp,%esp
   122be:	5d                   	pop    %ebp
   122bf:	c3                   	ret    

000122c0 <Free_Page>:
   122c0:	55                   	push   %ebp
   122c1:	89 e5                	mov    %esp,%ebp
   122c3:	53                   	push   %ebx
   122c4:	83 ec 24             	sub    $0x24,%esp
   122c7:	e8 85 e0 ff ff       	call   10351 <Interrupts_Enabled>
   122cc:	89 c3                	mov    %eax,%ebx
   122ce:	84 c0                	test   %al,%al
   122d0:	74 54                	je     12326 <Free_Page+0x66>
   122d2:	e8 7a e0 ff ff       	call   10351 <Interrupts_Enabled>
   122d7:	84 c0                	test   %al,%al
   122d9:	75 4a                	jne    12325 <Free_Page+0x65>
   122db:	c7 04 24 4f 00 00 00 	movl   $0x4f,(%esp)
   122e2:	e8 0c ee ff ff       	call   110f3 <Set_Current_Attr>
   122e7:	a1 d0 07 02 00       	mov    0x207d0,%eax
   122ec:	89 44 24 18          	mov    %eax,0x18(%esp)
   122f0:	8b 45 04             	mov    0x4(%ebp),%eax
   122f3:	89 44 24 14          	mov    %eax,0x14(%esp)
   122f7:	c7 44 24 10 8f 00 00 	movl   $0x8f,0x10(%esp)
   122fe:	00 
   122ff:	c7 44 24 0c 6e ce 01 	movl   $0x1ce6e,0xc(%esp)
   12306:	00 
   12307:	c7 44 24 08 5f cd 01 	movl   $0x1cd5f,0x8(%esp)
   1230e:	00 
   1230f:	c7 44 24 04 92 d3 01 	movl   $0x1d392,0x4(%esp)
   12316:	00 
   12317:	c7 04 24 1c cc 01 00 	movl   $0x1cc1c,(%esp)
   1231e:	e8 99 ec ff ff       	call   10fbc <Print>
   12323:	eb fe                	jmp    12323 <Free_Page+0x63>
   12325:	fa                   	cli    
   12326:	8b 45 08             	mov    0x8(%ebp),%eax
   12329:	89 c2                	mov    %eax,%edx
   1232b:	81 e2 00 f0 ff ff    	and    $0xfffff000,%edx
   12331:	39 d0                	cmp    %edx,%eax
   12333:	74 4a                	je     1237f <Free_Page+0xbf>
   12335:	c7 04 24 4f 00 00 00 	movl   $0x4f,(%esp)
   1233c:	e8 b2 ed ff ff       	call   110f3 <Set_Current_Attr>
   12341:	a1 d0 07 02 00       	mov    0x207d0,%eax
   12346:	89 44 24 18          	mov    %eax,0x18(%esp)
   1234a:	8b 45 04             	mov    0x4(%ebp),%eax
   1234d:	89 44 24 14          	mov    %eax,0x14(%esp)
   12351:	c7 44 24 10 d4 00 00 	movl   $0xd4,0x10(%esp)
   12358:	00 
   12359:	c7 44 24 0c 34 d2 01 	movl   $0x1d234,0xc(%esp)
   12360:	00 
   12361:	c7 44 24 08 48 d2 01 	movl   $0x1d248,0x8(%esp)
   12368:	00 
   12369:	c7 44 24 04 88 d3 01 	movl   $0x1d388,0x4(%esp)
   12370:	00 
   12371:	c7 04 24 1c cc 01 00 	movl   $0x1cc1c,(%esp)
   12378:	e8 3f ec ff ff       	call   10fbc <Print>
   1237d:	eb fe                	jmp    1237d <Free_Page+0xbd>
   1237f:	c1 e8 0c             	shr    $0xc,%eax
   12382:	6b c0 0c             	imul   $0xc,%eax,%eax
   12385:	03 05 c4 07 02 00    	add    0x207c4,%eax
   1238b:	8b 10                	mov    (%eax),%edx
   1238d:	f6 c2 04             	test   $0x4,%dl
   12390:	75 4a                	jne    123dc <Free_Page+0x11c>
   12392:	c7 04 24 4f 00 00 00 	movl   $0x4f,(%esp)
   12399:	e8 55 ed ff ff       	call   110f3 <Set_Current_Attr>
   1239e:	a1 d0 07 02 00       	mov    0x207d0,%eax
   123a3:	89 44 24 18          	mov    %eax,0x18(%esp)
   123a7:	8b 45 04             	mov    0x4(%ebp),%eax
   123aa:	89 44 24 14          	mov    %eax,0x14(%esp)
   123ae:	c7 44 24 10 d8 00 00 	movl   $0xd8,0x10(%esp)
   123b5:	00 
   123b6:	c7 44 24 0c 34 d2 01 	movl   $0x1d234,0xc(%esp)
   123bd:	00 
   123be:	c7 44 24 08 cc d2 01 	movl   $0x1d2cc,0x8(%esp)
   123c5:	00 
   123c6:	c7 44 24 04 88 d3 01 	movl   $0x1d388,0x4(%esp)
   123cd:	00 
   123ce:	c7 04 24 1c cc 01 00 	movl   $0x1cc1c,(%esp)
   123d5:	e8 e2 eb ff ff       	call   10fbc <Print>
   123da:	eb fe                	jmp    123da <Free_Page+0x11a>
   123dc:	83 e2 fb             	and    $0xfffffffb,%edx
   123df:	89 10                	mov    %edx,(%eax)
   123e1:	8b 15 c4 fb 01 00    	mov    0x1fbc4,%edx
   123e7:	eb 07                	jmp    123f0 <Free_Page+0x130>
   123e9:	39 d0                	cmp    %edx,%eax
   123eb:	74 0c                	je     123f9 <Free_Page+0x139>
   123ed:	8b 52 08             	mov    0x8(%edx),%edx
   123f0:	85 d2                	test   %edx,%edx
   123f2:	75 f5                	jne    123e9 <Free_Page+0x129>
   123f4:	e9 26 01 00 00       	jmp    1251f <Free_Page+0x25f>
   123f9:	c7 04 24 4f 00 00 00 	movl   $0x4f,(%esp)
   12400:	e8 ee ec ff ff       	call   110f3 <Set_Current_Attr>
   12405:	a1 d0 07 02 00       	mov    0x207d0,%eax
   1240a:	89 44 24 18          	mov    %eax,0x18(%esp)
   1240e:	8b 45 04             	mov    0x4(%ebp),%eax
   12411:	89 44 24 14          	mov    %eax,0x14(%esp)
   12415:	c7 44 24 10 3f 00 00 	movl   $0x3f,0x10(%esp)
   1241c:	00 
   1241d:	c7 44 24 0c 5f d2 01 	movl   $0x1d25f,0xc(%esp)
   12424:	00 
   12425:	c7 44 24 08 f0 d2 01 	movl   $0x1d2f0,0x8(%esp)
   1242c:	00 
   1242d:	c7 44 24 04 a3 d3 01 	movl   $0x1d3a3,0x4(%esp)
   12434:	00 
   12435:	c7 04 24 1c cc 01 00 	movl   $0x1cc1c,(%esp)
   1243c:	e8 7b eb ff ff       	call   10fbc <Print>
   12441:	eb fe                	jmp    12441 <Free_Page+0x181>
   12443:	a3 c8 fb 01 00       	mov    %eax,0x1fbc8
   12448:	a3 c4 fb 01 00       	mov    %eax,0x1fbc4
   1244d:	c7 40 04 00 00 00 00 	movl   $0x0,0x4(%eax)
   12454:	eb 0f                	jmp    12465 <Free_Page+0x1a5>
   12456:	89 42 08             	mov    %eax,0x8(%edx)
   12459:	ba c8 fb 01 00       	mov    $0x1fbc8,%edx
   1245e:	8b 0a                	mov    (%edx),%ecx
   12460:	89 48 04             	mov    %ecx,0x4(%eax)
   12463:	89 02                	mov    %eax,(%edx)
   12465:	83 05 c0 fb 01 00 01 	addl   $0x1,0x1fbc0
   1246c:	e8 e0 de ff ff       	call   10351 <Interrupts_Enabled>
   12471:	84 c0                	test   %al,%al
   12473:	74 4a                	je     124bf <Free_Page+0x1ff>
   12475:	c7 04 24 4f 00 00 00 	movl   $0x4f,(%esp)
   1247c:	e8 72 ec ff ff       	call   110f3 <Set_Current_Attr>
   12481:	a1 d0 07 02 00       	mov    0x207d0,%eax
   12486:	89 44 24 18          	mov    %eax,0x18(%esp)
   1248a:	8b 45 04             	mov    0x4(%ebp),%eax
   1248d:	89 44 24 14          	mov    %eax,0x14(%esp)
   12491:	c7 44 24 10 99 00 00 	movl   $0x99,0x10(%esp)
   12498:	00 
   12499:	c7 44 24 0c 6e ce 01 	movl   $0x1ce6e,0xc(%esp)
   124a0:	00 
   124a1:	c7 44 24 08 5e cd 01 	movl   $0x1cd5e,0x8(%esp)
   124a8:	00 
   124a9:	c7 44 24 04 bc d3 01 	movl   $0x1d3bc,0x4(%esp)
   124b0:	00 
   124b1:	c7 04 24 1c cc 01 00 	movl   $0x1cc1c,(%esp)
   124b8:	e8 ff ea ff ff       	call   10fbc <Print>
   124bd:	eb fe                	jmp    124bd <Free_Page+0x1fd>
   124bf:	84 db                	test   %bl,%bl
   124c1:	74 76                	je     12539 <Free_Page+0x279>
   124c3:	90                   	nop
   124c4:	8d 74 26 00          	lea    0x0(%esi,%eiz,1),%esi
   124c8:	e8 84 de ff ff       	call   10351 <Interrupts_Enabled>
   124cd:	84 c0                	test   %al,%al
   124cf:	90                   	nop
   124d0:	74 4a                	je     1251c <Free_Page+0x25c>
   124d2:	c7 04 24 4f 00 00 00 	movl   $0x4f,(%esp)
   124d9:	e8 15 ec ff ff       	call   110f3 <Set_Current_Attr>
   124de:	a1 d0 07 02 00       	mov    0x207d0,%eax
   124e3:	89 44 24 18          	mov    %eax,0x18(%esp)
   124e7:	8b 45 04             	mov    0x4(%ebp),%eax
   124ea:	89 44 24 14          	mov    %eax,0x14(%esp)
   124ee:	c7 44 24 10 9c 00 00 	movl   $0x9c,0x10(%esp)
   124f5:	00 
   124f6:	c7 44 24 0c 6e ce 01 	movl   $0x1ce6e,0xc(%esp)
   124fd:	00 
   124fe:	c7 44 24 08 5e cd 01 	movl   $0x1cd5e,0x8(%esp)
   12505:	00 
   12506:	c7 44 24 04 bc d3 01 	movl   $0x1d3bc,0x4(%esp)
   1250d:	00 
   1250e:	c7 04 24 1c cc 01 00 	movl   $0x1cc1c,(%esp)
   12515:	e8 a2 ea ff ff       	call   10fbc <Print>
   1251a:	eb fe                	jmp    1251a <Free_Page+0x25a>
   1251c:	fb                   	sti    
   1251d:	eb 1a                	jmp    12539 <Free_Page+0x279>
   1251f:	c7 40 08 00 00 00 00 	movl   $0x0,0x8(%eax)
   12526:	8b 15 c8 fb 01 00    	mov    0x1fbc8,%edx
   1252c:	85 d2                	test   %edx,%edx
   1252e:	0f 85 22 ff ff ff    	jne    12456 <Free_Page+0x196>
   12534:	e9 0a ff ff ff       	jmp    12443 <Free_Page+0x183>
   12539:	83 c4 24             	add    $0x24,%esp
   1253c:	5b                   	pop    %ebx
   1253d:	5d                   	pop    %ebp
   1253e:	c3                   	ret    

0001253f <Init_BSS>:
   1253f:	55                   	push   %ebp
   12540:	89 e5                	mov    %esp,%ebp
   12542:	83 ec 18             	sub    $0x18,%esp
   12545:	b8 f0 07 02 00       	mov    $0x207f0,%eax
   1254a:	2d 28 f1 01 00       	sub    $0x1f128,%eax
   1254f:	89 44 24 08          	mov    %eax,0x8(%esp)
   12553:	c7 44 24 04 00 00 00 	movl   $0x0,0x4(%esp)
   1255a:	00 
   1255b:	c7 04 24 28 f1 01 00 	movl   $0x1f128,(%esp)
   12562:	e8 a9 a1 00 00       	call   1c710 <memset>
   12567:	c9                   	leave  
   12568:	c3                   	ret    

00012569 <Add_Page_Range>:
   12569:	55                   	push   %ebp
   1256a:	89 e5                	mov    %esp,%ebp
   1256c:	57                   	push   %edi
   1256d:	56                   	push   %esi
   1256e:	53                   	push   %ebx
   1256f:	83 ec 3c             	sub    $0x3c,%esp
   12572:	89 ce                	mov    %ecx,%esi
   12574:	89 c1                	mov    %eax,%ecx
   12576:	81 e1 00 f0 ff ff    	and    $0xfffff000,%ecx
   1257c:	39 c8                	cmp    %ecx,%eax
   1257e:	74 4a                	je     125ca <Add_Page_Range+0x61>
   12580:	c7 04 24 4f 00 00 00 	movl   $0x4f,(%esp)
   12587:	e8 67 eb ff ff       	call   110f3 <Set_Current_Attr>
   1258c:	a1 d0 07 02 00       	mov    0x207d0,%eax
   12591:	89 44 24 18          	mov    %eax,0x18(%esp)
   12595:	8b 45 04             	mov    0x4(%ebp),%eax
   12598:	89 44 24 14          	mov    %eax,0x14(%esp)
   1259c:	c7 44 24 10 3f 00 00 	movl   $0x3f,0x10(%esp)
   125a3:	00 
   125a4:	c7 44 24 0c 34 d2 01 	movl   $0x1d234,0xc(%esp)
   125ab:	00 
   125ac:	c7 44 24 08 77 d2 01 	movl   $0x1d277,0x8(%esp)
   125b3:	00 
   125b4:	c7 44 24 04 df d3 01 	movl   $0x1d3df,0x4(%esp)
   125bb:	00 
   125bc:	c7 04 24 1c cc 01 00 	movl   $0x1cc1c,(%esp)
   125c3:	e8 f4 e9 ff ff       	call   10fbc <Print>
   125c8:	eb fe                	jmp    125c8 <Add_Page_Range+0x5f>
   125ca:	89 d1                	mov    %edx,%ecx
   125cc:	81 e1 00 f0 ff ff    	and    $0xfffff000,%ecx
   125d2:	39 ca                	cmp    %ecx,%edx
   125d4:	74 4a                	je     12620 <Add_Page_Range+0xb7>
   125d6:	c7 04 24 4f 00 00 00 	movl   $0x4f,(%esp)
   125dd:	e8 11 eb ff ff       	call   110f3 <Set_Current_Attr>
   125e2:	a1 d0 07 02 00       	mov    0x207d0,%eax
   125e7:	89 44 24 18          	mov    %eax,0x18(%esp)
   125eb:	8b 45 04             	mov    0x4(%ebp),%eax
   125ee:	89 44 24 14          	mov    %eax,0x14(%esp)
   125f2:	c7 44 24 10 40 00 00 	movl   $0x40,0x10(%esp)
   125f9:	00 
   125fa:	c7 44 24 0c 34 d2 01 	movl   $0x1d234,0xc(%esp)
   12601:	00 
   12602:	c7 44 24 08 8f d2 01 	movl   $0x1d28f,0x8(%esp)
   12609:	00 
   1260a:	c7 44 24 04 df d3 01 	movl   $0x1d3df,0x4(%esp)
   12611:	00 
   12612:	c7 04 24 1c cc 01 00 	movl   $0x1cc1c,(%esp)
   12619:	e8 9e e9 ff ff       	call   10fbc <Print>
   1261e:	eb fe                	jmp    1261e <Add_Page_Range+0xb5>
   12620:	89 c3                	mov    %eax,%ebx
   12622:	b9 c8 fb 01 00       	mov    $0x1fbc8,%ecx
   12627:	39 d0                	cmp    %edx,%eax
   12629:	72 4a                	jb     12675 <Add_Page_Range+0x10c>
   1262b:	c7 04 24 4f 00 00 00 	movl   $0x4f,(%esp)
   12632:	e8 bc ea ff ff       	call   110f3 <Set_Current_Attr>
   12637:	a1 d0 07 02 00       	mov    0x207d0,%eax
   1263c:	89 44 24 18          	mov    %eax,0x18(%esp)
   12640:	8b 45 04             	mov    0x4(%ebp),%eax
   12643:	89 44 24 14          	mov    %eax,0x14(%esp)
   12647:	c7 44 24 10 41 00 00 	movl   $0x41,0x10(%esp)
   1264e:	00 
   1264f:	c7 44 24 0c 34 d2 01 	movl   $0x1d234,0xc(%esp)
   12656:	00 
   12657:	c7 44 24 08 a5 d2 01 	movl   $0x1d2a5,0x8(%esp)
   1265e:	00 
   1265f:	c7 44 24 04 df d3 01 	movl   $0x1d3df,0x4(%esp)
   12666:	00 
   12667:	c7 04 24 1c cc 01 00 	movl   $0x1cc1c,(%esp)
   1266e:	e8 49 e9 ff ff       	call   10fbc <Print>
   12673:	eb fe                	jmp    12673 <Add_Page_Range+0x10a>
   12675:	89 d8                	mov    %ebx,%eax
   12677:	c1 e8 0c             	shr    $0xc,%eax
   1267a:	6b c0 0c             	imul   $0xc,%eax,%eax
   1267d:	03 05 c4 07 02 00    	add    0x207c4,%eax
   12683:	89 30                	mov    %esi,(%eax)
   12685:	85 f6                	test   %esi,%esi
   12687:	0f 85 8b 00 00 00    	jne    12718 <Add_Page_Range+0x1af>
   1268d:	bf c4 fb 01 00       	mov    $0x1fbc4,%edi
   12692:	8b 3f                	mov    (%edi),%edi
   12694:	89 7d e4             	mov    %edi,-0x1c(%ebp)
   12697:	eb 07                	jmp    126a0 <Add_Page_Range+0x137>
   12699:	39 f8                	cmp    %edi,%eax
   1269b:	74 0c                	je     126a9 <Add_Page_Range+0x140>
   1269d:	8b 7f 08             	mov    0x8(%edi),%edi
   126a0:	85 ff                	test   %edi,%edi
   126a2:	75 f5                	jne    12699 <Add_Page_Range+0x130>
   126a4:	e9 8d 00 00 00       	jmp    12736 <Add_Page_Range+0x1cd>
   126a9:	c7 04 24 4f 00 00 00 	movl   $0x4f,(%esp)
   126b0:	e8 3e ea ff ff       	call   110f3 <Set_Current_Attr>
   126b5:	a1 d0 07 02 00       	mov    0x207d0,%eax
   126ba:	89 44 24 18          	mov    %eax,0x18(%esp)
   126be:	8b 45 04             	mov    0x4(%ebp),%eax
   126c1:	89 44 24 14          	mov    %eax,0x14(%esp)
   126c5:	c7 44 24 10 3f 00 00 	movl   $0x3f,0x10(%esp)
   126cc:	00 
   126cd:	c7 44 24 0c 5f d2 01 	movl   $0x1d25f,0xc(%esp)
   126d4:	00 
   126d5:	c7 44 24 08 f0 d2 01 	movl   $0x1d2f0,0x8(%esp)
   126dc:	00 
   126dd:	c7 44 24 04 a3 d3 01 	movl   $0x1d3a3,0x4(%esp)
   126e4:	00 
   126e5:	c7 04 24 1c cc 01 00 	movl   $0x1cc1c,(%esp)
   126ec:	e8 cb e8 ff ff       	call   10fbc <Print>
   126f1:	eb fe                	jmp    126f1 <Add_Page_Range+0x188>
   126f3:	89 01                	mov    %eax,(%ecx)
   126f5:	bf c4 fb 01 00       	mov    $0x1fbc4,%edi
   126fa:	89 07                	mov    %eax,(%edi)
   126fc:	c7 40 04 00 00 00 00 	movl   $0x0,0x4(%eax)
   12703:	eb 0a                	jmp    1270f <Add_Page_Range+0x1a6>
   12705:	89 47 08             	mov    %eax,0x8(%edi)
   12708:	8b 39                	mov    (%ecx),%edi
   1270a:	89 78 04             	mov    %edi,0x4(%eax)
   1270d:	89 01                	mov    %eax,(%ecx)
   1270f:	83 05 c0 fb 01 00 01 	addl   $0x1,0x1fbc0
   12716:	eb 0e                	jmp    12726 <Add_Page_Range+0x1bd>
   12718:	c7 40 08 00 00 00 00 	movl   $0x0,0x8(%eax)
   1271f:	c7 40 04 00 00 00 00 	movl   $0x0,0x4(%eax)
   12726:	81 c3 00 10 00 00    	add    $0x1000,%ebx
   1272c:	39 da                	cmp    %ebx,%edx
   1272e:	0f 87 41 ff ff ff    	ja     12675 <Add_Page_Range+0x10c>
   12734:	eb 0f                	jmp    12745 <Add_Page_Range+0x1dc>
   12736:	c7 40 08 00 00 00 00 	movl   $0x0,0x8(%eax)
   1273d:	8b 39                	mov    (%ecx),%edi
   1273f:	85 ff                	test   %edi,%edi
   12741:	75 c2                	jne    12705 <Add_Page_Range+0x19c>
   12743:	eb ae                	jmp    126f3 <Add_Page_Range+0x18a>
   12745:	83 c4 3c             	add    $0x3c,%esp
   12748:	5b                   	pop    %ebx
   12749:	5e                   	pop    %esi
   1274a:	5f                   	pop    %edi
   1274b:	5d                   	pop    %ebp
   1274c:	c3                   	ret    

0001274d <Init_Mem>:
   1274d:	55                   	push   %ebp
   1274e:	89 e5                	mov    %esp,%ebp
   12750:	57                   	push   %edi
   12751:	56                   	push   %esi
   12752:	53                   	push   %ebx
   12753:	83 ec 2c             	sub    $0x2c,%esp
   12756:	8b 7d 08             	mov    0x8(%ebp),%edi
   12759:	8b 77 04             	mov    0x4(%edi),%esi
   1275c:	85 f6                	test   %esi,%esi
   1275e:	7f 4a                	jg     127aa <Init_Mem+0x5d>
   12760:	c7 04 24 4f 00 00 00 	movl   $0x4f,(%esp)
   12767:	e8 87 e9 ff ff       	call   110f3 <Set_Current_Attr>
   1276c:	a1 d0 07 02 00       	mov    0x207d0,%eax
   12771:	89 44 24 18          	mov    %eax,0x18(%esp)
   12775:	8b 45 04             	mov    0x4(%ebp),%eax
   12778:	89 44 24 14          	mov    %eax,0x14(%esp)
   1277c:	c7 44 24 10 6c 00 00 	movl   $0x6c,0x10(%esp)
   12783:	00 
   12784:	c7 44 24 0c 34 d2 01 	movl   $0x1d234,0xc(%esp)
   1278b:	00 
   1278c:	c7 44 24 08 b1 d2 01 	movl   $0x1d2b1,0x8(%esp)
   12793:	00 
   12794:	c7 44 24 04 d6 d3 01 	movl   $0x1d3d6,0x4(%esp)
   1279b:	00 
   1279c:	c7 04 24 1c cc 01 00 	movl   $0x1cc1c,(%esp)
   127a3:	e8 14 e8 ff ff       	call   10fbc <Print>
   127a8:	eb fe                	jmp    127a8 <Init_Mem+0x5b>
   127aa:	e8 ee 06 00 00       	call   12e9d <Init_GDT>
   127af:	b8 f0 07 02 00       	mov    $0x207f0,%eax
   127b4:	a9 ff 0f 00 00       	test   $0xfff,%eax
   127b9:	74 0a                	je     127c5 <Init_Mem+0x78>
   127bb:	25 00 f0 ff ff       	and    $0xfffff000,%eax
   127c0:	05 00 10 00 00       	add    $0x1000,%eax
   127c5:	c1 fe 02             	sar    $0x2,%esi
   127c8:	a3 c4 07 02 00       	mov    %eax,0x207c4
   127cd:	6b de 0c             	imul   $0xc,%esi,%ebx
   127d0:	8d 1c 18             	lea    (%eax,%ebx,1),%ebx
   127d3:	f7 c3 ff 0f 00 00    	test   $0xfff,%ebx
   127d9:	74 0c                	je     127e7 <Init_Mem+0x9a>
   127db:	81 e3 00 f0 ff ff    	and    $0xfffff000,%ebx
   127e1:	81 c3 00 10 00 00    	add    $0x1000,%ebx
   127e7:	89 35 c8 07 02 00    	mov    %esi,0x207c8
   127ed:	b9 08 00 00 00       	mov    $0x8,%ecx
   127f2:	ba 00 10 00 00       	mov    $0x1000,%edx
   127f7:	b8 00 00 00 00       	mov    $0x0,%eax
   127fc:	e8 68 fd ff ff       	call   12569 <Add_Page_Range>
   12801:	b9 00 00 00 00       	mov    $0x0,%ecx
   12806:	ba 00 00 01 00       	mov    $0x10000,%edx
   1280b:	b8 00 10 00 00       	mov    $0x1000,%eax
   12810:	e8 54 fd ff ff       	call   12569 <Add_Page_Range>
   12815:	b9 01 00 00 00       	mov    $0x1,%ecx
   1281a:	89 da                	mov    %ebx,%edx
   1281c:	b8 00 00 01 00       	mov    $0x10000,%eax
   12821:	e8 43 fd ff ff       	call   12569 <Add_Page_Range>
   12826:	b9 00 00 00 00       	mov    $0x0,%ecx
   1282b:	ba 00 00 0a 00       	mov    $0xa0000,%edx
   12830:	89 d8                	mov    %ebx,%eax
   12832:	e8 32 fd ff ff       	call   12569 <Add_Page_Range>
   12837:	b9 02 00 00 00       	mov    $0x2,%ecx
   1283c:	ba 00 00 10 00       	mov    $0x100000,%edx
   12841:	b8 00 00 0a 00       	mov    $0xa0000,%eax
   12846:	e8 1e fd ff ff       	call   12569 <Add_Page_Range>
   1284b:	b9 04 00 00 00       	mov    $0x4,%ecx
   12850:	ba 00 20 10 00       	mov    $0x102000,%edx
   12855:	b8 00 00 10 00       	mov    $0x100000,%eax
   1285a:	e8 0a fd ff ff       	call   12569 <Add_Page_Range>
   1285f:	b9 10 00 00 00       	mov    $0x10,%ecx
   12864:	ba 00 20 20 00       	mov    $0x202000,%edx
   12869:	b8 00 20 10 00       	mov    $0x102000,%eax
   1286e:	e8 f6 fc ff ff       	call   12569 <Add_Page_Range>
   12873:	89 f2                	mov    %esi,%edx
   12875:	c1 e2 0c             	shl    $0xc,%edx
   12878:	b9 00 00 00 00       	mov    $0x0,%ecx
   1287d:	b8 00 20 20 00       	mov    $0x202000,%eax
   12882:	e8 e2 fc ff ff       	call   12569 <Add_Page_Range>
   12887:	c7 44 24 04 00 00 10 	movl   $0x100000,0x4(%esp)
   1288e:	00 
   1288f:	c7 04 24 00 20 10 00 	movl   $0x102000,(%esp)
   12896:	e8 52 15 00 00       	call   13ded <Init_Heap>
   1289b:	c7 44 24 0c 00 00 10 	movl   $0x100000,0xc(%esp)
   128a2:	00 
   128a3:	a1 c0 fb 01 00       	mov    0x1fbc0,%eax
   128a8:	89 44 24 08          	mov    %eax,0x8(%esp)
   128ac:	8b 47 04             	mov    0x4(%edi),%eax
   128af:	89 44 24 04          	mov    %eax,0x4(%esp)
   128b3:	c7 04 24 1c d3 01 00 	movl   $0x1d31c,(%esp)
   128ba:	e8 fd e6 ff ff       	call   10fbc <Print>
   128bf:	83 c4 2c             	add    $0x2c,%esp
   128c2:	5b                   	pop    %ebx
   128c3:	5e                   	pop    %esi
   128c4:	5f                   	pop    %edi
   128c5:	5d                   	pop    %ebp
   128c6:	c3                   	ret    

000128c7 <Alloc_Page>:
   128c7:	55                   	push   %ebp
   128c8:	89 e5                	mov    %esp,%ebp
   128ca:	56                   	push   %esi
   128cb:	53                   	push   %ebx
   128cc:	83 ec 20             	sub    $0x20,%esp
   128cf:	e8 7d da ff ff       	call   10351 <Interrupts_Enabled>
   128d4:	89 c3                	mov    %eax,%ebx
   128d6:	84 c0                	test   %al,%al
   128d8:	74 54                	je     1292e <Alloc_Page+0x67>
   128da:	e8 72 da ff ff       	call   10351 <Interrupts_Enabled>
   128df:	84 c0                	test   %al,%al
   128e1:	75 4a                	jne    1292d <Alloc_Page+0x66>
   128e3:	c7 04 24 4f 00 00 00 	movl   $0x4f,(%esp)
   128ea:	e8 04 e8 ff ff       	call   110f3 <Set_Current_Attr>
   128ef:	a1 d0 07 02 00       	mov    0x207d0,%eax
   128f4:	89 44 24 18          	mov    %eax,0x18(%esp)
   128f8:	8b 45 04             	mov    0x4(%ebp),%eax
   128fb:	89 44 24 14          	mov    %eax,0x14(%esp)
   128ff:	c7 44 24 10 8f 00 00 	movl   $0x8f,0x10(%esp)
   12906:	00 
   12907:	c7 44 24 0c 6e ce 01 	movl   $0x1ce6e,0xc(%esp)
   1290e:	00 
   1290f:	c7 44 24 08 5f cd 01 	movl   $0x1cd5f,0x8(%esp)
   12916:	00 
   12917:	c7 44 24 04 92 d3 01 	movl   $0x1d392,0x4(%esp)
   1291e:	00 
   1291f:	c7 04 24 1c cc 01 00 	movl   $0x1cc1c,(%esp)
   12926:	e8 91 e6 ff ff       	call   10fbc <Print>
   1292b:	eb fe                	jmp    1292b <Alloc_Page+0x64>
   1292d:	fa                   	cli    
   1292e:	a1 c4 fb 01 00       	mov    0x1fbc4,%eax
   12933:	be 00 00 00 00       	mov    $0x0,%esi
   12938:	85 c0                	test   %eax,%eax
   1293a:	0f 84 8d 00 00 00    	je     129cd <Alloc_Page+0x106>
   12940:	f6 00 04             	testb  $0x4,(%eax)
   12943:	74 4a                	je     1298f <Alloc_Page+0xc8>
   12945:	c7 04 24 4f 00 00 00 	movl   $0x4f,(%esp)
   1294c:	e8 a2 e7 ff ff       	call   110f3 <Set_Current_Attr>
   12951:	a1 d0 07 02 00       	mov    0x207d0,%eax
   12956:	89 44 24 18          	mov    %eax,0x18(%esp)
   1295a:	8b 45 04             	mov    0x4(%ebp),%eax
   1295d:	89 44 24 14          	mov    %eax,0x14(%esp)
   12961:	c7 44 24 10 bb 00 00 	movl   $0xbb,0x10(%esp)
   12968:	00 
   12969:	c7 44 24 0c 34 d2 01 	movl   $0x1d234,0xc(%esp)
   12970:	00 
   12971:	c7 44 24 08 64 d3 01 	movl   $0x1d364,0x8(%esp)
   12978:	00 
   12979:	c7 44 24 04 cb d3 01 	movl   $0x1d3cb,0x4(%esp)
   12980:	00 
   12981:	c7 04 24 1c cc 01 00 	movl   $0x1cc1c,(%esp)
   12988:	e8 2f e6 ff ff       	call   10fbc <Print>
   1298d:	eb fe                	jmp    1298d <Alloc_Page+0xc6>
   1298f:	8b 50 08             	mov    0x8(%eax),%edx
   12992:	89 15 c4 fb 01 00    	mov    %edx,0x1fbc4
   12998:	85 d2                	test   %edx,%edx
   1299a:	75 0c                	jne    129a8 <Alloc_Page+0xe1>
   1299c:	c7 05 c8 fb 01 00 00 	movl   $0x0,0x1fbc8
   129a3:	00 00 00 
   129a6:	eb 07                	jmp    129af <Alloc_Page+0xe8>
   129a8:	c7 42 04 00 00 00 00 	movl   $0x0,0x4(%edx)
   129af:	83 08 04             	orl    $0x4,(%eax)
   129b2:	83 2d c0 fb 01 00 01 	subl   $0x1,0x1fbc0
   129b9:	2b 05 c4 07 02 00    	sub    0x207c4,%eax
   129bf:	89 c6                	mov    %eax,%esi
   129c1:	c1 fe 02             	sar    $0x2,%esi
   129c4:	69 f6 ab aa aa aa    	imul   $0xaaaaaaab,%esi,%esi
   129ca:	c1 e6 0c             	shl    $0xc,%esi
   129cd:	e8 7f d9 ff ff       	call   10351 <Interrupts_Enabled>
   129d2:	84 c0                	test   %al,%al
   129d4:	74 4a                	je     12a20 <Alloc_Page+0x159>
   129d6:	c7 04 24 4f 00 00 00 	movl   $0x4f,(%esp)
   129dd:	e8 11 e7 ff ff       	call   110f3 <Set_Current_Attr>
   129e2:	a1 d0 07 02 00       	mov    0x207d0,%eax
   129e7:	89 44 24 18          	mov    %eax,0x18(%esp)
   129eb:	8b 45 04             	mov    0x4(%ebp),%eax
   129ee:	89 44 24 14          	mov    %eax,0x14(%esp)
   129f2:	c7 44 24 10 99 00 00 	movl   $0x99,0x10(%esp)
   129f9:	00 
   129fa:	c7 44 24 0c 6e ce 01 	movl   $0x1ce6e,0xc(%esp)
   12a01:	00 
   12a02:	c7 44 24 08 5e cd 01 	movl   $0x1cd5e,0x8(%esp)
   12a09:	00 
   12a0a:	c7 44 24 04 bc d3 01 	movl   $0x1d3bc,0x4(%esp)
   12a11:	00 
   12a12:	c7 04 24 1c cc 01 00 	movl   $0x1cc1c,(%esp)
   12a19:	e8 9e e5 ff ff       	call   10fbc <Print>
   12a1e:	eb fe                	jmp    12a1e <Alloc_Page+0x157>
   12a20:	84 db                	test   %bl,%bl
   12a22:	74 59                	je     12a7d <Alloc_Page+0x1b6>
   12a24:	8d 74 26 00          	lea    0x0(%esi,%eiz,1),%esi
   12a28:	e8 24 d9 ff ff       	call   10351 <Interrupts_Enabled>
   12a2d:	84 c0                	test   %al,%al
   12a2f:	90                   	nop
   12a30:	74 4a                	je     12a7c <Alloc_Page+0x1b5>
   12a32:	c7 04 24 4f 00 00 00 	movl   $0x4f,(%esp)
   12a39:	e8 b5 e6 ff ff       	call   110f3 <Set_Current_Attr>
   12a3e:	a1 d0 07 02 00       	mov    0x207d0,%eax
   12a43:	89 44 24 18          	mov    %eax,0x18(%esp)
   12a47:	8b 45 04             	mov    0x4(%ebp),%eax
   12a4a:	89 44 24 14          	mov    %eax,0x14(%esp)
   12a4e:	c7 44 24 10 9c 00 00 	movl   $0x9c,0x10(%esp)
   12a55:	00 
   12a56:	c7 44 24 0c 6e ce 01 	movl   $0x1ce6e,0xc(%esp)
   12a5d:	00 
   12a5e:	c7 44 24 08 5e cd 01 	movl   $0x1cd5e,0x8(%esp)
   12a65:	00 
   12a66:	c7 44 24 04 bc d3 01 	movl   $0x1d3bc,0x4(%esp)
   12a6d:	00 
   12a6e:	c7 04 24 1c cc 01 00 	movl   $0x1cc1c,(%esp)
   12a75:	e8 42 e5 ff ff       	call   10fbc <Print>
   12a7a:	eb fe                	jmp    12a7a <Alloc_Page+0x1b3>
   12a7c:	fb                   	sti    
   12a7d:	89 f0                	mov    %esi,%eax
   12a7f:	83 c4 20             	add    $0x20,%esp
   12a82:	5b                   	pop    %ebx
   12a83:	5e                   	pop    %esi
   12a84:	5d                   	pop    %ebp
   12a85:	c3                   	ret    
   12a86:	90                   	nop
   12a87:	90                   	nop

00012a88 <Init_CRC32>:
   12a88:	55                   	push   %ebp
   12a89:	89 e5                	mov    %esp,%ebp
   12a8b:	57                   	push   %edi
   12a8c:	56                   	push   %esi
   12a8d:	53                   	push   %ebx
   12a8e:	83 ec 0c             	sub    $0xc,%esp
   12a91:	c7 05 e0 fb 01 00 00 	movl   $0x0,0x1fbe0
   12a98:	00 00 00 
   12a9b:	c7 45 e8 00 00 00 00 	movl   $0x0,-0x18(%ebp)
   12aa2:	c7 45 ec 80 00 00 00 	movl   $0x80,-0x14(%ebp)
   12aa9:	bb 00 00 00 00       	mov    $0x0,%ebx
   12aae:	b8 20 83 b8 ed       	mov    $0xedb88320,%eax
   12ab3:	bf e0 fb 01 00       	mov    $0x1fbe0,%edi
   12ab8:	eb 12                	jmp    12acc <Init_CRC32+0x44>
   12aba:	89 d8                	mov    %ebx,%eax
   12abc:	83 e0 01             	and    $0x1,%eax
   12abf:	f7 d8                	neg    %eax
   12ac1:	25 20 83 b8 ed       	and    $0xedb88320,%eax
   12ac6:	d1 eb                	shr    %ebx
   12ac8:	83 45 e8 01          	addl   $0x1,-0x18(%ebp)
   12acc:	31 c3                	xor    %eax,%ebx
   12ace:	8b 75 ec             	mov    -0x14(%ebp),%esi
   12ad1:	01 f6                	add    %esi,%esi
   12ad3:	8b 45 ec             	mov    -0x14(%ebp),%eax
   12ad6:	c1 e0 03             	shl    $0x3,%eax
   12ad9:	89 45 f0             	mov    %eax,-0x10(%ebp)
   12adc:	8b 45 ec             	mov    -0x14(%ebp),%eax
   12adf:	8d 14 85 e0 fb 01 00 	lea    0x1fbe0(,%eax,4),%edx
   12ae6:	b8 00 00 00 00       	mov    $0x0,%eax
   12aeb:	89 d9                	mov    %ebx,%ecx
   12aed:	33 0c 87             	xor    (%edi,%eax,4),%ecx
   12af0:	89 0a                	mov    %ecx,(%edx)
   12af2:	01 f0                	add    %esi,%eax
   12af4:	03 55 f0             	add    -0x10(%ebp),%edx
   12af7:	3d ff 00 00 00       	cmp    $0xff,%eax
   12afc:	76 ed                	jbe    12aeb <Init_CRC32+0x63>
   12afe:	d1 6d ec             	shrl   -0x14(%ebp)
   12b01:	83 7d e8 07          	cmpl   $0x7,-0x18(%ebp)
   12b05:	75 b3                	jne    12aba <Init_CRC32+0x32>
   12b07:	83 c4 0c             	add    $0xc,%esp
   12b0a:	5b                   	pop    %ebx
   12b0b:	5e                   	pop    %esi
   12b0c:	5f                   	pop    %edi
   12b0d:	5d                   	pop    %ebp
   12b0e:	c3                   	ret    

00012b0f <crc32>:
   12b0f:	55                   	push   %ebp
   12b10:	89 e5                	mov    %esp,%ebp
   12b12:	57                   	push   %edi
   12b13:	56                   	push   %esi
   12b14:	53                   	push   %ebx
   12b15:	83 ec 2c             	sub    $0x2c,%esp
   12b18:	8b 7d 0c             	mov    0xc(%ebp),%edi
   12b1b:	8b 4d 10             	mov    0x10(%ebp),%ecx
   12b1e:	83 3d dc ff 01 00 00 	cmpl   $0x0,0x1ffdc
   12b25:	75 4a                	jne    12b71 <crc32+0x62>
   12b27:	c7 04 24 4f 00 00 00 	movl   $0x4f,(%esp)
   12b2e:	e8 c0 e5 ff ff       	call   110f3 <Set_Current_Attr>
   12b33:	a1 d0 07 02 00       	mov    0x207d0,%eax
   12b38:	89 44 24 18          	mov    %eax,0x18(%esp)
   12b3c:	8b 45 04             	mov    0x4(%ebp),%eax
   12b3f:	89 44 24 14          	mov    %eax,0x14(%esp)
   12b43:	c7 44 24 10 2b 00 00 	movl   $0x2b,0x10(%esp)
   12b4a:	00 
   12b4b:	c7 44 24 0c ee d3 01 	movl   $0x1d3ee,0xc(%esp)
   12b52:	00 
   12b53:	c7 44 24 08 04 d4 01 	movl   $0x1d404,0x8(%esp)
   12b5a:	00 
   12b5b:	c7 44 24 04 18 d4 01 	movl   $0x1d418,0x4(%esp)
   12b62:	00 
   12b63:	c7 04 24 1c cc 01 00 	movl   $0x1cc1c,(%esp)
   12b6a:	e8 4d e4 ff ff       	call   10fbc <Print>
   12b6f:	eb fe                	jmp    12b6f <crc32+0x60>
   12b71:	8b 55 08             	mov    0x8(%ebp),%edx
   12b74:	f7 d2                	not    %edx
   12b76:	85 c9                	test   %ecx,%ecx
   12b78:	74 21                	je     12b9b <crc32+0x8c>
   12b7a:	b8 00 00 00 00       	mov    $0x0,%eax
   12b7f:	be e0 fb 01 00       	mov    $0x1fbe0,%esi
   12b84:	89 d3                	mov    %edx,%ebx
   12b86:	c1 eb 08             	shr    $0x8,%ebx
   12b89:	32 14 07             	xor    (%edi,%eax,1),%dl
   12b8c:	0f b6 d2             	movzbl %dl,%edx
   12b8f:	8b 14 96             	mov    (%esi,%edx,4),%edx
   12b92:	31 da                	xor    %ebx,%edx
   12b94:	83 c0 01             	add    $0x1,%eax
   12b97:	39 c8                	cmp    %ecx,%eax
   12b99:	75 e9                	jne    12b84 <crc32+0x75>
   12b9b:	89 d0                	mov    %edx,%eax
   12b9d:	f7 d0                	not    %eax
   12b9f:	83 c4 2c             	add    $0x2c,%esp
   12ba2:	5b                   	pop    %ebx
   12ba3:	5e                   	pop    %esi
   12ba4:	5f                   	pop    %edi
   12ba5:	5d                   	pop    %ebp
   12ba6:	c3                   	ret    
   12ba7:	90                   	nop
   12ba8:	90                   	nop
   12ba9:	90                   	nop
   12baa:	90                   	nop
   12bab:	90                   	nop
   12bac:	90                   	nop
   12bad:	90                   	nop
   12bae:	90                   	nop
   12baf:	90                   	nop

00012bb0 <Get_Descriptor_Index>:
   12bb0:	55                   	push   %ebp
   12bb1:	89 e5                	mov    %esp,%ebp
   12bb3:	8b 45 08             	mov    0x8(%ebp),%eax
   12bb6:	2d 00 00 02 00       	sub    $0x20000,%eax
   12bbb:	c1 f8 03             	sar    $0x3,%eax
   12bbe:	5d                   	pop    %ebp
   12bbf:	c3                   	ret    

00012bc0 <Free_Segment_Descriptor>:
   12bc0:	55                   	push   %ebp
   12bc1:	89 e5                	mov    %esp,%ebp
   12bc3:	53                   	push   %ebx
   12bc4:	83 ec 34             	sub    $0x34,%esp
   12bc7:	8b 5d 08             	mov    0x8(%ebp),%ebx
   12bca:	e8 82 d7 ff ff       	call   10351 <Interrupts_Enabled>
   12bcf:	88 45 f7             	mov    %al,-0x9(%ebp)
   12bd2:	84 c0                	test   %al,%al
   12bd4:	74 54                	je     12c2a <Free_Segment_Descriptor+0x6a>
   12bd6:	e8 76 d7 ff ff       	call   10351 <Interrupts_Enabled>
   12bdb:	84 c0                	test   %al,%al
   12bdd:	75 4a                	jne    12c29 <Free_Segment_Descriptor+0x69>
   12bdf:	c7 04 24 4f 00 00 00 	movl   $0x4f,(%esp)
   12be6:	e8 08 e5 ff ff       	call   110f3 <Set_Current_Attr>
   12beb:	a1 d0 07 02 00       	mov    0x207d0,%eax
   12bf0:	89 44 24 18          	mov    %eax,0x18(%esp)
   12bf4:	8b 45 04             	mov    0x4(%ebp),%eax
   12bf7:	89 44 24 14          	mov    %eax,0x14(%esp)
   12bfb:	c7 44 24 10 8f 00 00 	movl   $0x8f,0x10(%esp)
   12c02:	00 
   12c03:	c7 44 24 0c 6e ce 01 	movl   $0x1ce6e,0xc(%esp)
   12c0a:	00 
   12c0b:	c7 44 24 08 5f cd 01 	movl   $0x1cd5f,0x8(%esp)
   12c12:	00 
   12c13:	c7 44 24 04 c0 d4 01 	movl   $0x1d4c0,0x4(%esp)
   12c1a:	00 
   12c1b:	c7 04 24 1c cc 01 00 	movl   $0x1cc1c,(%esp)
   12c22:	e8 95 e3 ff ff       	call   10fbc <Print>
   12c27:	eb fe                	jmp    12c27 <Free_Segment_Descriptor+0x67>
   12c29:	fa                   	cli    
   12c2a:	f6 43 06 10          	testb  $0x10,0x6(%ebx)
   12c2e:	74 4a                	je     12c7a <Free_Segment_Descriptor+0xba>
   12c30:	c7 04 24 4f 00 00 00 	movl   $0x4f,(%esp)
   12c37:	e8 b7 e4 ff ff       	call   110f3 <Set_Current_Attr>
   12c3c:	a1 d0 07 02 00       	mov    0x207d0,%eax
   12c41:	89 44 24 18          	mov    %eax,0x18(%esp)
   12c45:	8b 45 04             	mov    0x4(%ebp),%eax
   12c48:	89 44 24 14          	mov    %eax,0x14(%esp)
   12c4c:	c7 44 24 10 4f 00 00 	movl   $0x4f,0x10(%esp)
   12c53:	00 
   12c54:	c7 44 24 0c 1e d4 01 	movl   $0x1d41e,0xc(%esp)
   12c5b:	00 
   12c5c:	c7 44 24 08 32 d4 01 	movl   $0x1d432,0x8(%esp)
   12c63:	00 
   12c64:	c7 44 24 04 a8 d4 01 	movl   $0x1d4a8,0x4(%esp)
   12c6b:	00 
   12c6c:	c7 04 24 1c cc 01 00 	movl   $0x1cc1c,(%esp)
   12c73:	e8 44 e3 ff ff       	call   10fbc <Print>
   12c78:	eb fe                	jmp    12c78 <Free_Segment_Descriptor+0xb8>
   12c7a:	89 1c 24             	mov    %ebx,(%esp)
   12c7d:	e8 42 06 00 00       	call   132c4 <Init_Null_Segment_Descriptor>
   12c82:	80 4b 06 10          	orb    $0x10,0x6(%ebx)
   12c86:	83 2d e0 ff 01 00 01 	subl   $0x1,0x1ffe0
   12c8d:	e8 bf d6 ff ff       	call   10351 <Interrupts_Enabled>
   12c92:	84 c0                	test   %al,%al
   12c94:	74 4a                	je     12ce0 <Free_Segment_Descriptor+0x120>
   12c96:	c7 04 24 4f 00 00 00 	movl   $0x4f,(%esp)
   12c9d:	e8 51 e4 ff ff       	call   110f3 <Set_Current_Attr>
   12ca2:	a1 d0 07 02 00       	mov    0x207d0,%eax
   12ca7:	89 44 24 18          	mov    %eax,0x18(%esp)
   12cab:	8b 45 04             	mov    0x4(%ebp),%eax
   12cae:	89 44 24 14          	mov    %eax,0x14(%esp)
   12cb2:	c7 44 24 10 99 00 00 	movl   $0x99,0x10(%esp)
   12cb9:	00 
   12cba:	c7 44 24 0c 6e ce 01 	movl   $0x1ce6e,0xc(%esp)
   12cc1:	00 
   12cc2:	c7 44 24 08 5e cd 01 	movl   $0x1cd5e,0x8(%esp)
   12cc9:	00 
   12cca:	c7 44 24 04 d1 d4 01 	movl   $0x1d4d1,0x4(%esp)
   12cd1:	00 
   12cd2:	c7 04 24 1c cc 01 00 	movl   $0x1cc1c,(%esp)
   12cd9:	e8 de e2 ff ff       	call   10fbc <Print>
   12cde:	eb fe                	jmp    12cde <Free_Segment_Descriptor+0x11e>
   12ce0:	80 7d f7 00          	cmpb   $0x0,-0x9(%ebp)
   12ce4:	74 57                	je     12d3d <Free_Segment_Descriptor+0x17d>
   12ce6:	66 90                	xchg   %ax,%ax
   12ce8:	e8 64 d6 ff ff       	call   10351 <Interrupts_Enabled>
   12ced:	84 c0                	test   %al,%al
   12cef:	90                   	nop
   12cf0:	74 4a                	je     12d3c <Free_Segment_Descriptor+0x17c>
   12cf2:	c7 04 24 4f 00 00 00 	movl   $0x4f,(%esp)
   12cf9:	e8 f5 e3 ff ff       	call   110f3 <Set_Current_Attr>
   12cfe:	a1 d0 07 02 00       	mov    0x207d0,%eax
   12d03:	89 44 24 18          	mov    %eax,0x18(%esp)
   12d07:	8b 45 04             	mov    0x4(%ebp),%eax
   12d0a:	89 44 24 14          	mov    %eax,0x14(%esp)
   12d0e:	c7 44 24 10 9c 00 00 	movl   $0x9c,0x10(%esp)
   12d15:	00 
   12d16:	c7 44 24 0c 6e ce 01 	movl   $0x1ce6e,0xc(%esp)
   12d1d:	00 
   12d1e:	c7 44 24 08 5e cd 01 	movl   $0x1cd5e,0x8(%esp)
   12d25:	00 
   12d26:	c7 44 24 04 d1 d4 01 	movl   $0x1d4d1,0x4(%esp)
   12d2d:	00 
   12d2e:	c7 04 24 1c cc 01 00 	movl   $0x1cc1c,(%esp)
   12d35:	e8 82 e2 ff ff       	call   10fbc <Print>
   12d3a:	eb fe                	jmp    12d3a <Free_Segment_Descriptor+0x17a>
   12d3c:	fb                   	sti    
   12d3d:	83 c4 34             	add    $0x34,%esp
   12d40:	5b                   	pop    %ebx
   12d41:	5d                   	pop    %ebp
   12d42:	c3                   	ret    

00012d43 <Allocate_Segment_Descriptor>:
   12d43:	55                   	push   %ebp
   12d44:	89 e5                	mov    %esp,%ebp
   12d46:	56                   	push   %esi
   12d47:	53                   	push   %ebx
   12d48:	83 ec 20             	sub    $0x20,%esp
   12d4b:	e8 01 d6 ff ff       	call   10351 <Interrupts_Enabled>
   12d50:	89 c3                	mov    %eax,%ebx
   12d52:	84 c0                	test   %al,%al
   12d54:	74 54                	je     12daa <Allocate_Segment_Descriptor+0x67>
   12d56:	e8 f6 d5 ff ff       	call   10351 <Interrupts_Enabled>
   12d5b:	84 c0                	test   %al,%al
   12d5d:	75 4a                	jne    12da9 <Allocate_Segment_Descriptor+0x66>
   12d5f:	c7 04 24 4f 00 00 00 	movl   $0x4f,(%esp)
   12d66:	e8 88 e3 ff ff       	call   110f3 <Set_Current_Attr>
   12d6b:	a1 d0 07 02 00       	mov    0x207d0,%eax
   12d70:	89 44 24 18          	mov    %eax,0x18(%esp)
   12d74:	8b 45 04             	mov    0x4(%ebp),%eax
   12d77:	89 44 24 14          	mov    %eax,0x14(%esp)
   12d7b:	c7 44 24 10 8f 00 00 	movl   $0x8f,0x10(%esp)
   12d82:	00 
   12d83:	c7 44 24 0c 6e ce 01 	movl   $0x1ce6e,0xc(%esp)
   12d8a:	00 
   12d8b:	c7 44 24 08 5f cd 01 	movl   $0x1cd5f,0x8(%esp)
   12d92:	00 
   12d93:	c7 44 24 04 c0 d4 01 	movl   $0x1d4c0,0x4(%esp)
   12d9a:	00 
   12d9b:	c7 04 24 1c cc 01 00 	movl   $0x1cc1c,(%esp)
   12da2:	e8 15 e2 ff ff       	call   10fbc <Print>
   12da7:	eb fe                	jmp    12da7 <Allocate_Segment_Descriptor+0x64>
   12da9:	fa                   	cli    
   12daa:	be 08 00 02 00       	mov    $0x20008,%esi
   12daf:	f6 05 0e 00 02 00 10 	testb  $0x10,0x2000e
   12db6:	75 12                	jne    12dca <Allocate_Segment_Descriptor+0x87>
   12db8:	b8 10 00 02 00       	mov    $0x20010,%eax
   12dbd:	ba 80 00 02 00       	mov    $0x20080,%edx
   12dc2:	89 c6                	mov    %eax,%esi
   12dc4:	f6 40 06 10          	testb  $0x10,0x6(%eax)
   12dc8:	74 0d                	je     12dd7 <Allocate_Segment_Descriptor+0x94>
   12dca:	83 05 e0 ff 01 00 01 	addl   $0x1,0x1ffe0
   12dd1:	80 66 06 ef          	andb   $0xef,0x6(%esi)
   12dd5:	eb 0c                	jmp    12de3 <Allocate_Segment_Descriptor+0xa0>
   12dd7:	83 c0 08             	add    $0x8,%eax
   12dda:	39 d0                	cmp    %edx,%eax
   12ddc:	75 e4                	jne    12dc2 <Allocate_Segment_Descriptor+0x7f>
   12dde:	be 00 00 00 00       	mov    $0x0,%esi
   12de3:	e8 69 d5 ff ff       	call   10351 <Interrupts_Enabled>
   12de8:	84 c0                	test   %al,%al
   12dea:	74 4a                	je     12e36 <Allocate_Segment_Descriptor+0xf3>
   12dec:	c7 04 24 4f 00 00 00 	movl   $0x4f,(%esp)
   12df3:	e8 fb e2 ff ff       	call   110f3 <Set_Current_Attr>
   12df8:	a1 d0 07 02 00       	mov    0x207d0,%eax
   12dfd:	89 44 24 18          	mov    %eax,0x18(%esp)
   12e01:	8b 45 04             	mov    0x4(%ebp),%eax
   12e04:	89 44 24 14          	mov    %eax,0x14(%esp)
   12e08:	c7 44 24 10 99 00 00 	movl   $0x99,0x10(%esp)
   12e0f:	00 
   12e10:	c7 44 24 0c 6e ce 01 	movl   $0x1ce6e,0xc(%esp)
   12e17:	00 
   12e18:	c7 44 24 08 5e cd 01 	movl   $0x1cd5e,0x8(%esp)
   12e1f:	00 
   12e20:	c7 44 24 04 d1 d4 01 	movl   $0x1d4d1,0x4(%esp)
   12e27:	00 
   12e28:	c7 04 24 1c cc 01 00 	movl   $0x1cc1c,(%esp)
   12e2f:	e8 88 e1 ff ff       	call   10fbc <Print>
   12e34:	eb fe                	jmp    12e34 <Allocate_Segment_Descriptor+0xf1>
   12e36:	84 db                	test   %bl,%bl
   12e38:	74 5a                	je     12e94 <Allocate_Segment_Descriptor+0x151>
   12e3a:	8d b6 00 00 00 00    	lea    0x0(%esi),%esi
   12e40:	e8 0c d5 ff ff       	call   10351 <Interrupts_Enabled>
   12e45:	84 c0                	test   %al,%al
   12e47:	74 4a                	je     12e93 <Allocate_Segment_Descriptor+0x150>
   12e49:	c7 04 24 4f 00 00 00 	movl   $0x4f,(%esp)
   12e50:	e8 9e e2 ff ff       	call   110f3 <Set_Current_Attr>
   12e55:	a1 d0 07 02 00       	mov    0x207d0,%eax
   12e5a:	89 44 24 18          	mov    %eax,0x18(%esp)
   12e5e:	8b 45 04             	mov    0x4(%ebp),%eax
   12e61:	89 44 24 14          	mov    %eax,0x14(%esp)
   12e65:	c7 44 24 10 9c 00 00 	movl   $0x9c,0x10(%esp)
   12e6c:	00 
   12e6d:	c7 44 24 0c 6e ce 01 	movl   $0x1ce6e,0xc(%esp)
   12e74:	00 
   12e75:	c7 44 24 08 5e cd 01 	movl   $0x1cd5e,0x8(%esp)
   12e7c:	00 
   12e7d:	c7 44 24 04 d1 d4 01 	movl   $0x1d4d1,0x4(%esp)
   12e84:	00 
   12e85:	c7 04 24 1c cc 01 00 	movl   $0x1cc1c,(%esp)
   12e8c:	e8 2b e1 ff ff       	call   10fbc <Print>
   12e91:	eb fe                	jmp    12e91 <Allocate_Segment_Descriptor+0x14e>
   12e93:	fb                   	sti    
   12e94:	89 f0                	mov    %esi,%eax
   12e96:	83 c4 20             	add    $0x20,%esp
   12e99:	5b                   	pop    %ebx
   12e9a:	5e                   	pop    %esi
   12e9b:	5d                   	pop    %ebp
   12e9c:	c3                   	ret    

00012e9d <Init_GDT>:
   12e9d:	55                   	push   %ebp
   12e9e:	89 e5                	mov    %esp,%ebp
   12ea0:	57                   	push   %edi
   12ea1:	56                   	push   %esi
   12ea2:	53                   	push   %ebx
   12ea3:	83 ec 3c             	sub    $0x3c,%esp
   12ea6:	be 00 00 02 00       	mov    $0x20000,%esi
   12eab:	bf 80 00 02 00       	mov    $0x20080,%edi
   12eb0:	89 f3                	mov    %esi,%ebx
   12eb2:	89 1c 24             	mov    %ebx,(%esp)
   12eb5:	e8 0a 04 00 00       	call   132c4 <Init_Null_Segment_Descriptor>
   12eba:	80 4b 06 10          	orb    $0x10,0x6(%ebx)
   12ebe:	83 c3 08             	add    $0x8,%ebx
   12ec1:	39 fb                	cmp    %edi,%ebx
   12ec3:	75 ed                	jne    12eb2 <Init_GDT+0x15>
   12ec5:	e8 79 fe ff ff       	call   12d43 <Allocate_Segment_Descriptor>
   12eca:	89 c3                	mov    %eax,%ebx
   12ecc:	c7 44 24 0c 00 00 00 	movl   $0x0,0xc(%esp)
   12ed3:	00 
   12ed4:	c7 44 24 08 00 00 10 	movl   $0x100000,0x8(%esp)
   12edb:	00 
   12edc:	c7 44 24 04 00 00 00 	movl   $0x0,0x4(%esp)
   12ee3:	00 
   12ee4:	89 04 24             	mov    %eax,(%esp)
   12ee7:	e8 ed 03 00 00       	call   132d9 <Init_Code_Segment_Descriptor>
   12eec:	89 1c 24             	mov    %ebx,(%esp)
   12eef:	e8 bc fc ff ff       	call   12bb0 <Get_Descriptor_Index>
   12ef4:	83 f8 01             	cmp    $0x1,%eax
   12ef7:	74 4a                	je     12f43 <Init_GDT+0xa6>
   12ef9:	c7 04 24 4f 00 00 00 	movl   $0x4f,(%esp)
   12f00:	e8 ee e1 ff ff       	call   110f3 <Set_Current_Attr>
   12f05:	a1 d0 07 02 00       	mov    0x207d0,%eax
   12f0a:	89 44 24 18          	mov    %eax,0x18(%esp)
   12f0e:	8b 45 04             	mov    0x4(%ebp),%eax
   12f11:	89 44 24 14          	mov    %eax,0x14(%esp)
   12f15:	c7 44 24 10 7b 00 00 	movl   $0x7b,0x10(%esp)
   12f1c:	00 
   12f1d:	c7 44 24 0c 1e d4 01 	movl   $0x1d41e,0xc(%esp)
   12f24:	00 
   12f25:	c7 44 24 08 40 d4 01 	movl   $0x1d440,0x8(%esp)
   12f2c:	00 
   12f2d:	c7 44 24 04 9f d4 01 	movl   $0x1d49f,0x4(%esp)
   12f34:	00 
   12f35:	c7 04 24 1c cc 01 00 	movl   $0x1cc1c,(%esp)
   12f3c:	e8 7b e0 ff ff       	call   10fbc <Print>
   12f41:	eb fe                	jmp    12f41 <Init_GDT+0xa4>
   12f43:	e8 fb fd ff ff       	call   12d43 <Allocate_Segment_Descriptor>
   12f48:	89 c3                	mov    %eax,%ebx
   12f4a:	c7 44 24 0c 00 00 00 	movl   $0x0,0xc(%esp)
   12f51:	00 
   12f52:	c7 44 24 08 00 00 10 	movl   $0x100000,0x8(%esp)
   12f59:	00 
   12f5a:	c7 44 24 04 00 00 00 	movl   $0x0,0x4(%esp)
   12f61:	00 
   12f62:	89 04 24             	mov    %eax,(%esp)
   12f65:	e8 4c 02 00 00       	call   131b6 <Init_Data_Segment_Descriptor>
   12f6a:	89 1c 24             	mov    %ebx,(%esp)
   12f6d:	e8 3e fc ff ff       	call   12bb0 <Get_Descriptor_Index>
   12f72:	83 f8 02             	cmp    $0x2,%eax
   12f75:	74 4a                	je     12fc1 <Init_GDT+0x124>
   12f77:	c7 04 24 4f 00 00 00 	movl   $0x4f,(%esp)
   12f7e:	e8 70 e1 ff ff       	call   110f3 <Set_Current_Attr>
   12f83:	a1 d0 07 02 00       	mov    0x207d0,%eax
   12f88:	89 44 24 18          	mov    %eax,0x18(%esp)
   12f8c:	8b 45 04             	mov    0x4(%ebp),%eax
   12f8f:	89 44 24 14          	mov    %eax,0x14(%esp)
   12f93:	c7 44 24 10 85 00 00 	movl   $0x85,0x10(%esp)
   12f9a:	00 
   12f9b:	c7 44 24 0c 1e d4 01 	movl   $0x1d41e,0xc(%esp)
   12fa2:	00 
   12fa3:	c7 44 24 08 70 d4 01 	movl   $0x1d470,0x8(%esp)
   12faa:	00 
   12fab:	c7 44 24 04 9f d4 01 	movl   $0x1d49f,0x4(%esp)
   12fb2:	00 
   12fb3:	c7 04 24 1c cc 01 00 	movl   $0x1cc1c,(%esp)
   12fba:	e8 fd df ff ff       	call   10fbc <Print>
   12fbf:	eb fe                	jmp    12fbf <Init_GDT+0x122>
   12fc1:	66 c7 45 e2 80 00    	movw   $0x80,-0x1e(%ebp)
   12fc7:	66 89 75 e4          	mov    %si,-0x1c(%ebp)
   12fcb:	c1 ee 10             	shr    $0x10,%esi
   12fce:	66 89 75 e6          	mov    %si,-0x1a(%ebp)
   12fd2:	8d 45 e2             	lea    -0x1e(%ebp),%eax
   12fd5:	89 04 24             	mov    %eax,(%esp)
   12fd8:	e8 7b 7d 00 00       	call   1ad58 <Load_GDTR>
   12fdd:	83 c4 3c             	add    $0x3c,%esp
   12fe0:	5b                   	pop    %ebx
   12fe1:	5e                   	pop    %esi
   12fe2:	5f                   	pop    %edi
   12fe3:	5d                   	pop    %ebp
   12fe4:	c3                   	ret    
   12fe5:	90                   	nop
   12fe6:	90                   	nop
   12fe7:	90                   	nop

00012fe8 <Set_Kernel_Stack_Pointer>:
   12fe8:	55                   	push   %ebp
   12fe9:	89 e5                	mov    %esp,%ebp
   12feb:	66 c7 05 88 00 02 00 	movw   $0x10,0x20088
   12ff2:	10 00 
   12ff4:	8b 45 08             	mov    0x8(%ebp),%eax
   12ff7:	a3 84 00 02 00       	mov    %eax,0x20084
   12ffc:	a1 e8 00 02 00       	mov    0x200e8,%eax
   13001:	0f b6 50 05          	movzbl 0x5(%eax),%edx
   13005:	83 e2 f0             	and    $0xfffffff0,%edx
   13008:	83 ca 09             	or     $0x9,%edx
   1300b:	88 50 05             	mov    %dl,0x5(%eax)
   1300e:	0f b7 05 ec 00 02 00 	movzwl 0x200ec,%eax
   13015:	0f 00 d8             	ltr    %ax
   13018:	5d                   	pop    %ebp
   13019:	c3                   	ret    

0001301a <Init_TSS>:
   1301a:	55                   	push   %ebp
   1301b:	89 e5                	mov    %esp,%ebp
   1301d:	57                   	push   %edi
   1301e:	83 ec 24             	sub    $0x24,%esp
   13021:	e8 1d fd ff ff       	call   12d43 <Allocate_Segment_Descriptor>
   13026:	a3 e8 00 02 00       	mov    %eax,0x200e8
   1302b:	85 c0                	test   %eax,%eax
   1302d:	75 4a                	jne    13079 <Init_TSS+0x5f>
   1302f:	c7 04 24 4f 00 00 00 	movl   $0x4f,(%esp)
   13036:	e8 b8 e0 ff ff       	call   110f3 <Set_Current_Attr>
   1303b:	a1 d0 07 02 00       	mov    0x207d0,%eax
   13040:	89 44 24 18          	mov    %eax,0x18(%esp)
   13044:	8b 45 04             	mov    0x4(%ebp),%eax
   13047:	89 44 24 14          	mov    %eax,0x14(%esp)
   1304b:	c7 44 24 10 31 00 00 	movl   $0x31,0x10(%esp)
   13052:	00 
   13053:	c7 44 24 0c e0 d4 01 	movl   $0x1d4e0,0xc(%esp)
   1305a:	00 
   1305b:	c7 44 24 08 f4 d4 01 	movl   $0x1d4f4,0x8(%esp)
   13062:	00 
   13063:	c7 44 24 04 03 d5 01 	movl   $0x1d503,0x4(%esp)
   1306a:	00 
   1306b:	c7 04 24 1c cc 01 00 	movl   $0x1cc1c,(%esp)
   13072:	e8 45 df ff ff       	call   10fbc <Print>
   13077:	eb fe                	jmp    13077 <Init_TSS+0x5d>
   13079:	ba 80 00 02 00       	mov    $0x20080,%edx
   1307e:	b9 1a 00 00 00       	mov    $0x1a,%ecx
   13083:	b8 00 00 00 00       	mov    $0x0,%eax
   13088:	89 d7                	mov    %edx,%edi
   1308a:	f3 ab                	rep stos %eax,%es:(%edi)
   1308c:	89 54 24 04          	mov    %edx,0x4(%esp)
   13090:	a1 e8 00 02 00       	mov    0x200e8,%eax
   13095:	89 04 24             	mov    %eax,(%esp)
   13098:	e8 33 00 00 00       	call   130d0 <Init_TSS_Descriptor>
   1309d:	a1 e8 00 02 00       	mov    0x200e8,%eax
   130a2:	89 04 24             	mov    %eax,(%esp)
   130a5:	e8 06 fb ff ff       	call   12bb0 <Get_Descriptor_Index>
   130aa:	c1 e0 03             	shl    $0x3,%eax
   130ad:	66 a3 ec 00 02 00    	mov    %ax,0x200ec
   130b3:	8b 15 e8 00 02 00    	mov    0x200e8,%edx
   130b9:	0f b6 4a 05          	movzbl 0x5(%edx),%ecx
   130bd:	83 e1 f0             	and    $0xfffffff0,%ecx
   130c0:	83 c9 09             	or     $0x9,%ecx
   130c3:	88 4a 05             	mov    %cl,0x5(%edx)
   130c6:	0f 00 d8             	ltr    %ax
   130c9:	83 c4 24             	add    $0x24,%esp
   130cc:	5f                   	pop    %edi
   130cd:	5d                   	pop    %ebp
   130ce:	c3                   	ret    
   130cf:	90                   	nop

000130d0 <Init_TSS_Descriptor>:
   130d0:	55                   	push   %ebp
   130d1:	89 e5                	mov    %esp,%ebp
   130d3:	83 ec 0c             	sub    $0xc,%esp
   130d6:	89 1c 24             	mov    %ebx,(%esp)
   130d9:	89 74 24 04          	mov    %esi,0x4(%esp)
   130dd:	89 7c 24 08          	mov    %edi,0x8(%esp)
   130e1:	8b 45 08             	mov    0x8(%ebp),%eax
   130e4:	8b 55 0c             	mov    0xc(%ebp),%edx
   130e7:	66 c7 00 68 00       	movw   $0x68,(%eax)
   130ec:	0f b6 78 06          	movzbl 0x6(%eax),%edi
   130f0:	89 d1                	mov    %edx,%ecx
   130f2:	81 e1 ff ff ff 00    	and    $0xffffff,%ecx
   130f8:	88 50 02             	mov    %dl,0x2(%eax)
   130fb:	0f b6 f5             	movzbl %ch,%esi
   130fe:	89 f3                	mov    %esi,%ebx
   13100:	88 58 03             	mov    %bl,0x3(%eax)
   13103:	c1 e9 10             	shr    $0x10,%ecx
   13106:	88 48 04             	mov    %cl,0x4(%eax)
   13109:	c1 ea 18             	shr    $0x18,%edx
   1310c:	88 50 07             	mov    %dl,0x7(%eax)
   1310f:	0f b6 50 05          	movzbl 0x5(%eax),%edx
   13113:	83 e2 f0             	and    $0xfffffff0,%edx
   13116:	83 ca 09             	or     $0x9,%edx
   13119:	83 e2 8f             	and    $0xffffff8f,%edx
   1311c:	83 ca 80             	or     $0xffffff80,%edx
   1311f:	88 50 05             	mov    %dl,0x5(%eax)
   13122:	89 fa                	mov    %edi,%edx
   13124:	83 e2 10             	and    $0x10,%edx
   13127:	88 50 06             	mov    %dl,0x6(%eax)
   1312a:	8b 1c 24             	mov    (%esp),%ebx
   1312d:	8b 74 24 04          	mov    0x4(%esp),%esi
   13131:	8b 7c 24 08          	mov    0x8(%esp),%edi
   13135:	89 ec                	mov    %ebp,%esp
   13137:	5d                   	pop    %ebp
   13138:	c3                   	ret    

00013139 <Init_LDT_Descriptor>:
   13139:	55                   	push   %ebp
   1313a:	89 e5                	mov    %esp,%ebp
   1313c:	83 ec 0c             	sub    $0xc,%esp
   1313f:	89 1c 24             	mov    %ebx,(%esp)
   13142:	89 74 24 04          	mov    %esi,0x4(%esp)
   13146:	89 7c 24 08          	mov    %edi,0x8(%esp)
   1314a:	8b 45 08             	mov    0x8(%ebp),%eax
   1314d:	8b 55 10             	mov    0x10(%ebp),%edx
   13150:	c1 e2 03             	shl    $0x3,%edx
   13153:	66 89 10             	mov    %dx,(%eax)
   13156:	c1 ea 10             	shr    $0x10,%edx
   13159:	0f b6 58 06          	movzbl 0x6(%eax),%ebx
   1315d:	83 e3 f0             	and    $0xfffffff0,%ebx
   13160:	89 de                	mov    %ebx,%esi
   13162:	83 e2 0f             	and    $0xf,%edx
   13165:	8b 5d 0c             	mov    0xc(%ebp),%ebx
   13168:	81 e3 ff ff ff 00    	and    $0xffffff,%ebx
   1316e:	0f b6 4d 0c          	movzbl 0xc(%ebp),%ecx
   13172:	88 48 02             	mov    %cl,0x2(%eax)
   13175:	0f b6 ff             	movzbl %bh,%edi
   13178:	89 f9                	mov    %edi,%ecx
   1317a:	88 48 03             	mov    %cl,0x3(%eax)
   1317d:	c1 eb 10             	shr    $0x10,%ebx
   13180:	88 58 04             	mov    %bl,0x4(%eax)
   13183:	8b 4d 0c             	mov    0xc(%ebp),%ecx
   13186:	c1 e9 18             	shr    $0x18,%ecx
   13189:	88 48 07             	mov    %cl,0x7(%eax)
   1318c:	09 f2                	or     %esi,%edx
   1318e:	0f b6 48 05          	movzbl 0x5(%eax),%ecx
   13192:	83 e1 f0             	and    $0xfffffff0,%ecx
   13195:	83 c9 02             	or     $0x2,%ecx
   13198:	83 e1 8f             	and    $0xffffff8f,%ecx
   1319b:	83 c9 80             	or     $0xffffff80,%ecx
   1319e:	88 48 05             	mov    %cl,0x5(%eax)
   131a1:	83 e2 1f             	and    $0x1f,%edx
   131a4:	88 50 06             	mov    %dl,0x6(%eax)
   131a7:	8b 1c 24             	mov    (%esp),%ebx
   131aa:	8b 74 24 04          	mov    0x4(%esp),%esi
   131ae:	8b 7c 24 08          	mov    0x8(%esp),%edi
   131b2:	89 ec                	mov    %ebp,%esp
   131b4:	5d                   	pop    %ebp
   131b5:	c3                   	ret    

000131b6 <Init_Data_Segment_Descriptor>:
   131b6:	55                   	push   %ebp
   131b7:	89 e5                	mov    %esp,%ebp
   131b9:	53                   	push   %ebx
   131ba:	83 ec 34             	sub    $0x34,%esp
   131bd:	8b 45 08             	mov    0x8(%ebp),%eax
   131c0:	8b 55 0c             	mov    0xc(%ebp),%edx
   131c3:	8b 5d 10             	mov    0x10(%ebp),%ebx
   131c6:	83 7d 14 03          	cmpl   $0x3,0x14(%ebp)
   131ca:	76 4a                	jbe    13216 <Init_Data_Segment_Descriptor+0x60>
   131cc:	c7 04 24 4f 00 00 00 	movl   $0x4f,(%esp)
   131d3:	e8 1b df ff ff       	call   110f3 <Set_Current_Attr>
   131d8:	a1 d0 07 02 00       	mov    0x207d0,%eax
   131dd:	89 44 24 18          	mov    %eax,0x18(%esp)
   131e1:	8b 45 04             	mov    0x4(%ebp),%eax
   131e4:	89 44 24 14          	mov    %eax,0x14(%esp)
   131e8:	c7 44 24 10 5f 00 00 	movl   $0x5f,0x10(%esp)
   131ef:	00 
   131f0:	c7 44 24 0c 0c d5 01 	movl   $0x1d50c,0xc(%esp)
   131f7:	00 
   131f8:	c7 44 24 08 34 d5 01 	movl   $0x1d534,0x8(%esp)
   131ff:	00 
   13200:	c7 44 24 04 5f d5 01 	movl   $0x1d55f,0x4(%esp)
   13207:	00 
   13208:	c7 04 24 1c cc 01 00 	movl   $0x1cc1c,(%esp)
   1320f:	e8 a8 dd ff ff       	call   10fbc <Print>
   13214:	eb fe                	jmp    13214 <Init_Data_Segment_Descriptor+0x5e>
   13216:	85 db                	test   %ebx,%ebx
   13218:	75 51                	jne    1326b <Init_Data_Segment_Descriptor+0xb5>
   1321a:	c7 04 24 4f 00 00 00 	movl   $0x4f,(%esp)
   13221:	8d b4 26 00 00 00 00 	lea    0x0(%esi,%eiz,1),%esi
   13228:	e8 c6 de ff ff       	call   110f3 <Set_Current_Attr>
   1322d:	a1 d0 07 02 00       	mov    0x207d0,%eax
   13232:	89 44 24 18          	mov    %eax,0x18(%esp)
   13236:	8b 45 04             	mov    0x4(%ebp),%eax
   13239:	89 44 24 14          	mov    %eax,0x14(%esp)
   1323d:	c7 44 24 10 21 00 00 	movl   $0x21,0x10(%esp)
   13244:	00 
   13245:	c7 44 24 0c 0c d5 01 	movl   $0x1d50c,0xc(%esp)
   1324c:	00 
   1324d:	c7 44 24 08 24 d5 01 	movl   $0x1d524,0x8(%esp)
   13254:	00 
   13255:	c7 44 24 04 7c d5 01 	movl   $0x1d57c,0x4(%esp)
   1325c:	00 
   1325d:	c7 04 24 1c cc 01 00 	movl   $0x1cc1c,(%esp)
   13264:	e8 53 dd ff ff       	call   10fbc <Print>
   13269:	eb fe                	jmp    13269 <Init_Data_Segment_Descriptor+0xb3>
   1326b:	83 eb 01             	sub    $0x1,%ebx
   1326e:	66 89 18             	mov    %bx,(%eax)
   13271:	c1 eb 10             	shr    $0x10,%ebx
   13274:	83 e3 0f             	and    $0xf,%ebx
   13277:	88 5d f7             	mov    %bl,-0x9(%ebp)
   1327a:	0f b6 58 06          	movzbl 0x6(%eax),%ebx
   1327e:	83 e3 10             	and    $0x10,%ebx
   13281:	88 5d f6             	mov    %bl,-0xa(%ebp)
   13284:	89 d3                	mov    %edx,%ebx
   13286:	81 e3 ff ff ff 00    	and    $0xffffff,%ebx
   1328c:	88 50 02             	mov    %dl,0x2(%eax)
   1328f:	0f b6 cf             	movzbl %bh,%ecx
   13292:	88 48 03             	mov    %cl,0x3(%eax)
   13295:	c1 eb 10             	shr    $0x10,%ebx
   13298:	88 58 04             	mov    %bl,0x4(%eax)
   1329b:	c1 ea 18             	shr    $0x18,%edx
   1329e:	88 50 07             	mov    %dl,0x7(%eax)
   132a1:	0f b6 55 14          	movzbl 0x14(%ebp),%edx
   132a5:	83 e2 03             	and    $0x3,%edx
   132a8:	c1 e2 05             	shl    $0x5,%edx
   132ab:	83 ca 92             	or     $0xffffff92,%edx
   132ae:	88 50 05             	mov    %dl,0x5(%eax)
   132b1:	0f b6 55 f6          	movzbl -0xa(%ebp),%edx
   132b5:	0a 55 f7             	or     -0x9(%ebp),%dl
   132b8:	83 ca c0             	or     $0xffffffc0,%edx
   132bb:	88 50 06             	mov    %dl,0x6(%eax)
   132be:	83 c4 34             	add    $0x34,%esp
   132c1:	5b                   	pop    %ebx
   132c2:	5d                   	pop    %ebp
   132c3:	c3                   	ret    

000132c4 <Init_Null_Segment_Descriptor>:
   132c4:	55                   	push   %ebp
   132c5:	89 e5                	mov    %esp,%ebp
   132c7:	8b 45 08             	mov    0x8(%ebp),%eax
   132ca:	c7 00 00 00 00 00    	movl   $0x0,(%eax)
   132d0:	c7 40 04 00 00 00 00 	movl   $0x0,0x4(%eax)
   132d7:	5d                   	pop    %ebp
   132d8:	c3                   	ret    

000132d9 <Init_Code_Segment_Descriptor>:
   132d9:	55                   	push   %ebp
   132da:	89 e5                	mov    %esp,%ebp
   132dc:	53                   	push   %ebx
   132dd:	83 ec 34             	sub    $0x34,%esp
   132e0:	8b 45 08             	mov    0x8(%ebp),%eax
   132e3:	8b 55 0c             	mov    0xc(%ebp),%edx
   132e6:	8b 5d 10             	mov    0x10(%ebp),%ebx
   132e9:	83 7d 14 03          	cmpl   $0x3,0x14(%ebp)
   132ed:	76 4a                	jbe    13339 <Init_Code_Segment_Descriptor+0x60>
   132ef:	c7 04 24 4f 00 00 00 	movl   $0x4f,(%esp)
   132f6:	e8 f8 dd ff ff       	call   110f3 <Set_Current_Attr>
   132fb:	a1 d0 07 02 00       	mov    0x207d0,%eax
   13300:	89 44 24 18          	mov    %eax,0x18(%esp)
   13304:	8b 45 04             	mov    0x4(%ebp),%eax
   13307:	89 44 24 14          	mov    %eax,0x14(%esp)
   1330b:	c7 44 24 10 4a 00 00 	movl   $0x4a,0x10(%esp)
   13312:	00 
   13313:	c7 44 24 0c 0c d5 01 	movl   $0x1d50c,0xc(%esp)
   1331a:	00 
   1331b:	c7 44 24 08 34 d5 01 	movl   $0x1d534,0x8(%esp)
   13322:	00 
   13323:	c7 44 24 04 94 d5 01 	movl   $0x1d594,0x4(%esp)
   1332a:	00 
   1332b:	c7 04 24 1c cc 01 00 	movl   $0x1cc1c,(%esp)
   13332:	e8 85 dc ff ff       	call   10fbc <Print>
   13337:	eb fe                	jmp    13337 <Init_Code_Segment_Descriptor+0x5e>
   13339:	85 db                	test   %ebx,%ebx
   1333b:	75 4e                	jne    1338b <Init_Code_Segment_Descriptor+0xb2>
   1333d:	c7 04 24 4f 00 00 00 	movl   $0x4f,(%esp)
   13344:	8d 74 26 00          	lea    0x0(%esi,%eiz,1),%esi
   13348:	e8 a6 dd ff ff       	call   110f3 <Set_Current_Attr>
   1334d:	a1 d0 07 02 00       	mov    0x207d0,%eax
   13352:	89 44 24 18          	mov    %eax,0x18(%esp)
   13356:	8b 45 04             	mov    0x4(%ebp),%eax
   13359:	89 44 24 14          	mov    %eax,0x14(%esp)
   1335d:	c7 44 24 10 21 00 00 	movl   $0x21,0x10(%esp)
   13364:	00 
   13365:	c7 44 24 0c 0c d5 01 	movl   $0x1d50c,0xc(%esp)
   1336c:	00 
   1336d:	c7 44 24 08 24 d5 01 	movl   $0x1d524,0x8(%esp)
   13374:	00 
   13375:	c7 44 24 04 7c d5 01 	movl   $0x1d57c,0x4(%esp)
   1337c:	00 
   1337d:	c7 04 24 1c cc 01 00 	movl   $0x1cc1c,(%esp)
   13384:	e8 33 dc ff ff       	call   10fbc <Print>
   13389:	eb fe                	jmp    13389 <Init_Code_Segment_Descriptor+0xb0>
   1338b:	83 eb 01             	sub    $0x1,%ebx
   1338e:	66 89 18             	mov    %bx,(%eax)
   13391:	c1 eb 10             	shr    $0x10,%ebx
   13394:	83 e3 0f             	and    $0xf,%ebx
   13397:	88 5d f7             	mov    %bl,-0x9(%ebp)
   1339a:	0f b6 58 06          	movzbl 0x6(%eax),%ebx
   1339e:	83 e3 10             	and    $0x10,%ebx
   133a1:	88 5d f6             	mov    %bl,-0xa(%ebp)
   133a4:	89 d3                	mov    %edx,%ebx
   133a6:	81 e3 ff ff ff 00    	and    $0xffffff,%ebx
   133ac:	88 50 02             	mov    %dl,0x2(%eax)
   133af:	0f b6 cf             	movzbl %bh,%ecx
   133b2:	88 48 03             	mov    %cl,0x3(%eax)
   133b5:	c1 eb 10             	shr    $0x10,%ebx
   133b8:	88 58 04             	mov    %bl,0x4(%eax)
   133bb:	c1 ea 18             	shr    $0x18,%edx
   133be:	88 50 07             	mov    %dl,0x7(%eax)
   133c1:	0f b6 55 14          	movzbl 0x14(%ebp),%edx
   133c5:	83 e2 03             	and    $0x3,%edx
   133c8:	c1 e2 05             	shl    $0x5,%edx
   133cb:	83 ca 9a             	or     $0xffffff9a,%edx
   133ce:	88 50 05             	mov    %dl,0x5(%eax)
   133d1:	0f b6 55 f6          	movzbl -0xa(%ebp),%edx
   133d5:	0a 55 f7             	or     -0x9(%ebp),%dl
   133d8:	83 ca c0             	or     $0xffffffc0,%edx
   133db:	88 50 06             	mov    %dl,0x6(%eax)
   133de:	83 c4 34             	add    $0x34,%esp
   133e1:	5b                   	pop    %ebx
   133e2:	5d                   	pop    %ebp
   133e3:	c3                   	ret    
   133e4:	90                   	nop
   133e5:	90                   	nop
   133e6:	90                   	nop
   133e7:	90                   	nop
   133e8:	90                   	nop
   133e9:	90                   	nop
   133ea:	90                   	nop
   133eb:	90                   	nop
   133ec:	90                   	nop
   133ed:	90                   	nop
   133ee:	90                   	nop
   133ef:	90                   	nop

000133f0 <bpool>:
   133f0:	55                   	push   %ebp
   133f1:	89 e5                	mov    %esp,%ebp
   133f3:	56                   	push   %esi
   133f4:	53                   	push   %ebx
   133f5:	83 ec 20             	sub    $0x20,%esp
   133f8:	8b 55 0c             	mov    0xc(%ebp),%edx
   133fb:	83 e2 fc             	and    $0xfffffffc,%edx
   133fe:	83 ea 08             	sub    $0x8,%edx
   13401:	85 d2                	test   %edx,%edx
   13403:	79 4a                	jns    1344f <bpool+0x5f>
   13405:	c7 04 24 4f 00 00 00 	movl   $0x4f,(%esp)
   1340c:	e8 e2 dc ff ff       	call   110f3 <Set_Current_Attr>
   13411:	a1 d0 07 02 00       	mov    0x207d0,%eax
   13416:	89 44 24 18          	mov    %eax,0x18(%esp)
   1341a:	8b 45 04             	mov    0x4(%ebp),%eax
   1341d:	89 44 24 14          	mov    %eax,0x14(%esp)
   13421:	c7 44 24 10 fa 03 00 	movl   $0x3fa,0x10(%esp)
   13428:	00 
   13429:	c7 44 24 0c b1 d5 01 	movl   $0x1d5b1,0xc(%esp)
   13430:	00 
   13431:	c7 44 24 08 bc d6 01 	movl   $0x1d6bc,0x8(%esp)
   13438:	00 
   13439:	c7 44 24 04 5a d8 01 	movl   $0x1d85a,0x4(%esp)
   13440:	00 
   13441:	c7 04 24 1c cc 01 00 	movl   $0x1cc1c,(%esp)
   13448:	e8 6f db ff ff       	call   10fbc <Print>
   1344d:	eb fe                	jmp    1344d <bpool+0x5d>
   1344f:	8b 45 08             	mov    0x8(%ebp),%eax
   13452:	c7 00 00 00 00 00    	movl   $0x0,(%eax)
   13458:	8b 1d 1c f0 01 00    	mov    0x1f01c,%ebx
   1345e:	81 7b 08 10 f0 01 00 	cmpl   $0x1f010,0x8(%ebx)
   13465:	74 4a                	je     134b1 <bpool+0xc1>
   13467:	c7 04 24 4f 00 00 00 	movl   $0x4f,(%esp)
   1346e:	e8 80 dc ff ff       	call   110f3 <Set_Current_Attr>
   13473:	a1 d0 07 02 00       	mov    0x207d0,%eax
   13478:	89 44 24 18          	mov    %eax,0x18(%esp)
   1347c:	8b 45 04             	mov    0x4(%ebp),%eax
   1347f:	89 44 24 14          	mov    %eax,0x14(%esp)
   13483:	c7 44 24 10 04 04 00 	movl   $0x404,0x10(%esp)
   1348a:	00 
   1348b:	c7 44 24 0c b1 d5 01 	movl   $0x1d5b1,0xc(%esp)
   13492:	00 
   13493:	c7 44 24 08 2c d7 01 	movl   $0x1d72c,0x8(%esp)
   1349a:	00 
   1349b:	c7 44 24 04 5a d8 01 	movl   $0x1d85a,0x4(%esp)
   134a2:	00 
   134a3:	c7 04 24 1c cc 01 00 	movl   $0x1cc1c,(%esp)
   134aa:	e8 0d db ff ff       	call   10fbc <Print>
   134af:	eb fe                	jmp    134af <bpool+0xbf>
   134b1:	8b 1d 18 f0 01 00    	mov    0x1f018,%ebx
   134b7:	81 7b 0c 10 f0 01 00 	cmpl   $0x1f010,0xc(%ebx)
   134be:	74 4a                	je     1350a <bpool+0x11a>
   134c0:	c7 04 24 4f 00 00 00 	movl   $0x4f,(%esp)
   134c7:	e8 27 dc ff ff       	call   110f3 <Set_Current_Attr>
   134cc:	a1 d0 07 02 00       	mov    0x207d0,%eax
   134d1:	89 44 24 18          	mov    %eax,0x18(%esp)
   134d5:	8b 45 04             	mov    0x4(%ebp),%eax
   134d8:	89 44 24 14          	mov    %eax,0x14(%esp)
   134dc:	c7 44 24 10 05 04 00 	movl   $0x405,0x10(%esp)
   134e3:	00 
   134e4:	c7 44 24 0c b1 d5 01 	movl   $0x1d5b1,0xc(%esp)
   134eb:	00 
   134ec:	c7 44 24 08 58 d7 01 	movl   $0x1d758,0x8(%esp)
   134f3:	00 
   134f4:	c7 44 24 04 5a d8 01 	movl   $0x1d85a,0x4(%esp)
   134fb:	00 
   134fc:	c7 04 24 1c cc 01 00 	movl   $0x1cc1c,(%esp)
   13503:	e8 b4 da ff ff       	call   10fbc <Print>
   13508:	eb fe                	jmp    13508 <bpool+0x118>
   1350a:	c7 40 08 10 f0 01 00 	movl   $0x1f010,0x8(%eax)
   13511:	bb 1c f0 01 00       	mov    $0x1f01c,%ebx
   13516:	8b 33                	mov    (%ebx),%esi
   13518:	89 70 0c             	mov    %esi,0xc(%eax)
   1351b:	89 03                	mov    %eax,(%ebx)
   1351d:	8b 58 0c             	mov    0xc(%eax),%ebx
   13520:	89 43 08             	mov    %eax,0x8(%ebx)
   13523:	89 50 04             	mov    %edx,0x4(%eax)
   13526:	01 d0                	add    %edx,%eax
   13528:	89 10                	mov    %edx,(%eax)
   1352a:	c7 40 04 00 00 00 80 	movl   $0x80000000,0x4(%eax)
   13531:	83 c4 20             	add    $0x20,%esp
   13534:	5b                   	pop    %ebx
   13535:	5e                   	pop    %esi
   13536:	5d                   	pop    %ebp
   13537:	c3                   	ret    

00013538 <brel>:
   13538:	55                   	push   %ebp
   13539:	89 e5                	mov    %esp,%ebp
   1353b:	56                   	push   %esi
   1353c:	53                   	push   %ebx
   1353d:	83 ec 20             	sub    $0x20,%esp
   13540:	8b 45 08             	mov    0x8(%ebp),%eax
   13543:	85 c0                	test   %eax,%eax
   13545:	75 4a                	jne    13591 <brel+0x59>
   13547:	c7 04 24 4f 00 00 00 	movl   $0x4f,(%esp)
   1354e:	e8 a0 db ff ff       	call   110f3 <Set_Current_Attr>
   13553:	a1 d0 07 02 00       	mov    0x207d0,%eax
   13558:	89 44 24 18          	mov    %eax,0x18(%esp)
   1355c:	8b 45 04             	mov    0x4(%ebp),%eax
   1355f:	89 44 24 14          	mov    %eax,0x14(%esp)
   13563:	c7 44 24 10 44 03 00 	movl   $0x344,0x10(%esp)
   1356a:	00 
   1356b:	c7 44 24 0c b1 d5 01 	movl   $0x1d5b1,0xc(%esp)
   13572:	00 
   13573:	c7 44 24 08 c6 d5 01 	movl   $0x1d5c6,0x8(%esp)
   1357a:	00 
   1357b:	c7 44 24 04 60 d8 01 	movl   $0x1d860,0x4(%esp)
   13582:	00 
   13583:	c7 04 24 1c cc 01 00 	movl   $0x1cc1c,(%esp)
   1358a:	e8 2d da ff ff       	call   10fbc <Print>
   1358f:	eb fe                	jmp    1358f <brel+0x57>
   13591:	83 e8 08             	sub    $0x8,%eax
   13594:	8b 50 04             	mov    0x4(%eax),%edx
   13597:	85 d2                	test   %edx,%edx
   13599:	78 4a                	js     135e5 <brel+0xad>
   1359b:	c7 04 24 4f 00 00 00 	movl   $0x4f,(%esp)
   135a2:	e8 4c db ff ff       	call   110f3 <Set_Current_Attr>
   135a7:	a1 d0 07 02 00       	mov    0x207d0,%eax
   135ac:	89 44 24 18          	mov    %eax,0x18(%esp)
   135b0:	8b 45 04             	mov    0x4(%ebp),%eax
   135b3:	89 44 24 14          	mov    %eax,0x14(%esp)
   135b7:	c7 44 24 10 61 03 00 	movl   $0x361,0x10(%esp)
   135be:	00 
   135bf:	c7 44 24 0c b1 d5 01 	movl   $0x1d5b1,0xc(%esp)
   135c6:	00 
   135c7:	c7 44 24 08 d9 d5 01 	movl   $0x1d5d9,0x8(%esp)
   135ce:	00 
   135cf:	c7 44 24 04 60 d8 01 	movl   $0x1d860,0x4(%esp)
   135d6:	00 
   135d7:	c7 04 24 1c cc 01 00 	movl   $0x1cc1c,(%esp)
   135de:	e8 d9 d9 ff ff       	call   10fbc <Print>
   135e3:	eb fe                	jmp    135e3 <brel+0xab>
   135e5:	89 d1                	mov    %edx,%ecx
   135e7:	f7 d9                	neg    %ecx
   135e9:	83 3c 08 00          	cmpl   $0x0,(%eax,%ecx,1)
   135ed:	74 4a                	je     13639 <brel+0x101>
   135ef:	c7 04 24 4f 00 00 00 	movl   $0x4f,(%esp)
   135f6:	e8 f8 da ff ff       	call   110f3 <Set_Current_Attr>
   135fb:	a1 d0 07 02 00       	mov    0x207d0,%eax
   13600:	89 44 24 18          	mov    %eax,0x18(%esp)
   13604:	8b 45 04             	mov    0x4(%ebp),%eax
   13607:	89 44 24 14          	mov    %eax,0x14(%esp)
   1360b:	c7 44 24 10 66 03 00 	movl   $0x366,0x10(%esp)
   13612:	00 
   13613:	c7 44 24 0c b1 d5 01 	movl   $0x1d5b1,0xc(%esp)
   1361a:	00 
   1361b:	c7 44 24 08 84 d7 01 	movl   $0x1d784,0x8(%esp)
   13622:	00 
   13623:	c7 44 24 04 60 d8 01 	movl   $0x1d860,0x4(%esp)
   1362a:	00 
   1362b:	c7 04 24 1c cc 01 00 	movl   $0x1cc1c,(%esp)
   13632:	e8 85 d9 ff ff       	call   10fbc <Print>
   13637:	eb fe                	jmp    13637 <brel+0xff>
   13639:	8b 08                	mov    (%eax),%ecx
   1363b:	85 c9                	test   %ecx,%ecx
   1363d:	74 5e                	je     1369d <brel+0x165>
   1363f:	89 cb                	mov    %ecx,%ebx
   13641:	f7 db                	neg    %ebx
   13643:	3b 4c 18 04          	cmp    0x4(%eax,%ebx,1),%ecx
   13647:	74 4a                	je     13693 <brel+0x15b>
   13649:	c7 04 24 4f 00 00 00 	movl   $0x4f,(%esp)
   13650:	e8 9e da ff ff       	call   110f3 <Set_Current_Attr>
   13655:	a1 d0 07 02 00       	mov    0x207d0,%eax
   1365a:	89 44 24 18          	mov    %eax,0x18(%esp)
   1365e:	8b 45 04             	mov    0x4(%ebp),%eax
   13661:	89 44 24 14          	mov    %eax,0x14(%esp)
   13665:	c7 44 24 10 7a 03 00 	movl   $0x37a,0x10(%esp)
   1366c:	00 
   1366d:	c7 44 24 0c b1 d5 01 	movl   $0x1d5b1,0xc(%esp)
   13674:	00 
   13675:	c7 44 24 08 c4 d7 01 	movl   $0x1d7c4,0x8(%esp)
   1367c:	00 
   1367d:	c7 44 24 04 60 d8 01 	movl   $0x1d860,0x4(%esp)
   13684:	00 
   13685:	c7 04 24 1c cc 01 00 	movl   $0x1cc1c,(%esp)
   1368c:	e8 2b d9 ff ff       	call   10fbc <Print>
   13691:	eb fe                	jmp    13691 <brel+0x159>
   13693:	01 d8                	add    %ebx,%eax
   13695:	29 50 04             	sub    %edx,0x4(%eax)
   13698:	e9 ce 00 00 00       	jmp    1376b <brel+0x233>
   1369d:	8b 15 1c f0 01 00    	mov    0x1f01c,%edx
   136a3:	81 7a 08 10 f0 01 00 	cmpl   $0x1f010,0x8(%edx)
   136aa:	74 4a                	je     136f6 <brel+0x1be>
   136ac:	c7 04 24 4f 00 00 00 	movl   $0x4f,(%esp)
   136b3:	e8 3b da ff ff       	call   110f3 <Set_Current_Attr>
   136b8:	a1 d0 07 02 00       	mov    0x207d0,%eax
   136bd:	89 44 24 18          	mov    %eax,0x18(%esp)
   136c1:	8b 45 04             	mov    0x4(%ebp),%eax
   136c4:	89 44 24 14          	mov    %eax,0x14(%esp)
   136c8:	c7 44 24 10 82 03 00 	movl   $0x382,0x10(%esp)
   136cf:	00 
   136d0:	c7 44 24 0c b1 d5 01 	movl   $0x1d5b1,0xc(%esp)
   136d7:	00 
   136d8:	c7 44 24 08 2c d7 01 	movl   $0x1d72c,0x8(%esp)
   136df:	00 
   136e0:	c7 44 24 04 60 d8 01 	movl   $0x1d860,0x4(%esp)
   136e7:	00 
   136e8:	c7 04 24 1c cc 01 00 	movl   $0x1cc1c,(%esp)
   136ef:	e8 c8 d8 ff ff       	call   10fbc <Print>
   136f4:	eb fe                	jmp    136f4 <brel+0x1bc>
   136f6:	8b 15 18 f0 01 00    	mov    0x1f018,%edx
   136fc:	81 7a 0c 10 f0 01 00 	cmpl   $0x1f010,0xc(%edx)
   13703:	74 4a                	je     1374f <brel+0x217>
   13705:	c7 04 24 4f 00 00 00 	movl   $0x4f,(%esp)
   1370c:	e8 e2 d9 ff ff       	call   110f3 <Set_Current_Attr>
   13711:	a1 d0 07 02 00       	mov    0x207d0,%eax
   13716:	89 44 24 18          	mov    %eax,0x18(%esp)
   1371a:	8b 45 04             	mov    0x4(%ebp),%eax
   1371d:	89 44 24 14          	mov    %eax,0x14(%esp)
   13721:	c7 44 24 10 83 03 00 	movl   $0x383,0x10(%esp)
   13728:	00 
   13729:	c7 44 24 0c b1 d5 01 	movl   $0x1d5b1,0xc(%esp)
   13730:	00 
   13731:	c7 44 24 08 58 d7 01 	movl   $0x1d758,0x8(%esp)
   13738:	00 
   13739:	c7 44 24 04 60 d8 01 	movl   $0x1d860,0x4(%esp)
   13740:	00 
   13741:	c7 04 24 1c cc 01 00 	movl   $0x1cc1c,(%esp)
   13748:	e8 6f d8 ff ff       	call   10fbc <Print>
   1374d:	eb fe                	jmp    1374d <brel+0x215>
   1374f:	c7 40 08 10 f0 01 00 	movl   $0x1f010,0x8(%eax)
   13756:	ba 1c f0 01 00       	mov    $0x1f01c,%edx
   1375b:	8b 0a                	mov    (%edx),%ecx
   1375d:	89 48 0c             	mov    %ecx,0xc(%eax)
   13760:	89 02                	mov    %eax,(%edx)
   13762:	8b 50 0c             	mov    0xc(%eax),%edx
   13765:	89 42 08             	mov    %eax,0x8(%edx)
   13768:	f7 58 04             	negl   0x4(%eax)
   1376b:	89 c2                	mov    %eax,%edx
   1376d:	03 50 04             	add    0x4(%eax),%edx
   13770:	8b 4a 04             	mov    0x4(%edx),%ecx
   13773:	85 c9                	test   %ecx,%ecx
   13775:	0f 8e 10 01 00 00    	jle    1388b <brel+0x353>
   1377b:	3b 0c 0a             	cmp    (%edx,%ecx,1),%ecx
   1377e:	74 4a                	je     137ca <brel+0x292>
   13780:	c7 04 24 4f 00 00 00 	movl   $0x4f,(%esp)
   13787:	e8 67 d9 ff ff       	call   110f3 <Set_Current_Attr>
   1378c:	a1 d0 07 02 00       	mov    0x207d0,%eax
   13791:	89 44 24 18          	mov    %eax,0x18(%esp)
   13795:	8b 45 04             	mov    0x4(%ebp),%eax
   13798:	89 44 24 14          	mov    %eax,0x14(%esp)
   1379c:	c7 44 24 10 96 03 00 	movl   $0x396,0x10(%esp)
   137a3:	00 
   137a4:	c7 44 24 0c b1 d5 01 	movl   $0x1d5b1,0xc(%esp)
   137ab:	00 
   137ac:	c7 44 24 08 10 d8 01 	movl   $0x1d810,0x8(%esp)
   137b3:	00 
   137b4:	c7 44 24 04 60 d8 01 	movl   $0x1d860,0x4(%esp)
   137bb:	00 
   137bc:	c7 04 24 1c cc 01 00 	movl   $0x1cc1c,(%esp)
   137c3:	e8 f4 d7 ff ff       	call   10fbc <Print>
   137c8:	eb fe                	jmp    137c8 <brel+0x290>
   137ca:	8b 5a 0c             	mov    0xc(%edx),%ebx
   137cd:	8b 4b 08             	mov    0x8(%ebx),%ecx
   137d0:	39 d1                	cmp    %edx,%ecx
   137d2:	74 4a                	je     1381e <brel+0x2e6>
   137d4:	c7 04 24 4f 00 00 00 	movl   $0x4f,(%esp)
   137db:	e8 13 d9 ff ff       	call   110f3 <Set_Current_Attr>
   137e0:	a1 d0 07 02 00       	mov    0x207d0,%eax
   137e5:	89 44 24 18          	mov    %eax,0x18(%esp)
   137e9:	8b 45 04             	mov    0x4(%ebp),%eax
   137ec:	89 44 24 14          	mov    %eax,0x14(%esp)
   137f0:	c7 44 24 10 97 03 00 	movl   $0x397,0x10(%esp)
   137f7:	00 
   137f8:	c7 44 24 0c b1 d5 01 	movl   $0x1d5b1,0xc(%esp)
   137ff:	00 
   13800:	c7 44 24 08 e9 d5 01 	movl   $0x1d5e9,0x8(%esp)
   13807:	00 
   13808:	c7 44 24 04 60 d8 01 	movl   $0x1d860,0x4(%esp)
   1380f:	00 
   13810:	c7 04 24 1c cc 01 00 	movl   $0x1cc1c,(%esp)
   13817:	e8 a0 d7 ff ff       	call   10fbc <Print>
   1381c:	eb fe                	jmp    1381c <brel+0x2e4>
   1381e:	8b 51 08             	mov    0x8(%ecx),%edx
   13821:	3b 4a 0c             	cmp    0xc(%edx),%ecx
   13824:	74 4d                	je     13873 <brel+0x33b>
   13826:	c7 04 24 4f 00 00 00 	movl   $0x4f,(%esp)
   1382d:	8d 76 00             	lea    0x0(%esi),%esi
   13830:	e8 be d8 ff ff       	call   110f3 <Set_Current_Attr>
   13835:	a1 d0 07 02 00       	mov    0x207d0,%eax
   1383a:	89 44 24 18          	mov    %eax,0x18(%esp)
   1383e:	8b 45 04             	mov    0x4(%ebp),%eax
   13841:	89 44 24 14          	mov    %eax,0x14(%esp)
   13845:	c7 44 24 10 98 03 00 	movl   $0x398,0x10(%esp)
   1384c:	00 
   1384d:	c7 44 24 0c b1 d5 01 	movl   $0x1d5b1,0xc(%esp)
   13854:	00 
   13855:	c7 44 24 08 06 d6 01 	movl   $0x1d606,0x8(%esp)
   1385c:	00 
   1385d:	c7 44 24 04 60 d8 01 	movl   $0x1d860,0x4(%esp)
   13864:	00 
   13865:	c7 04 24 1c cc 01 00 	movl   $0x1cc1c,(%esp)
   1386c:	e8 4b d7 ff ff       	call   10fbc <Print>
   13871:	eb fe                	jmp    13871 <brel+0x339>
   13873:	89 53 08             	mov    %edx,0x8(%ebx)
   13876:	8b 51 08             	mov    0x8(%ecx),%edx
   13879:	8b 59 0c             	mov    0xc(%ecx),%ebx
   1387c:	89 5a 0c             	mov    %ebx,0xc(%edx)
   1387f:	8b 51 04             	mov    0x4(%ecx),%edx
   13882:	03 50 04             	add    0x4(%eax),%edx
   13885:	89 50 04             	mov    %edx,0x4(%eax)
   13888:	8d 14 10             	lea    (%eax,%edx,1),%edx
   1388b:	83 7a 04 00          	cmpl   $0x0,0x4(%edx)
   1388f:	78 4a                	js     138db <brel+0x3a3>
   13891:	c7 04 24 4f 00 00 00 	movl   $0x4f,(%esp)
   13898:	e8 56 d8 ff ff       	call   110f3 <Set_Current_Attr>
   1389d:	a1 d0 07 02 00       	mov    0x207d0,%eax
   138a2:	89 44 24 18          	mov    %eax,0x18(%esp)
   138a6:	8b 45 04             	mov    0x4(%ebp),%eax
   138a9:	89 44 24 14          	mov    %eax,0x14(%esp)
   138ad:	c7 44 24 10 aa 03 00 	movl   $0x3aa,0x10(%esp)
   138b4:	00 
   138b5:	c7 44 24 0c b1 d5 01 	movl   $0x1d5b1,0xc(%esp)
   138bc:	00 
   138bd:	c7 44 24 08 23 d6 01 	movl   $0x1d623,0x8(%esp)
   138c4:	00 
   138c5:	c7 44 24 04 60 d8 01 	movl   $0x1d860,0x4(%esp)
   138cc:	00 
   138cd:	c7 04 24 1c cc 01 00 	movl   $0x1cc1c,(%esp)
   138d4:	e8 e3 d6 ff ff       	call   10fbc <Print>
   138d9:	eb fe                	jmp    138d9 <brel+0x3a1>
   138db:	8b 40 04             	mov    0x4(%eax),%eax
   138de:	89 02                	mov    %eax,(%edx)
   138e0:	83 c4 20             	add    $0x20,%esp
   138e3:	5b                   	pop    %ebx
   138e4:	5e                   	pop    %esi
   138e5:	5d                   	pop    %ebp
   138e6:	c3                   	ret    

000138e7 <bget>:
   138e7:	55                   	push   %ebp
   138e8:	89 e5                	mov    %esp,%ebp
   138ea:	57                   	push   %edi
   138eb:	56                   	push   %esi
   138ec:	53                   	push   %ebx
   138ed:	83 ec 2c             	sub    $0x2c,%esp
   138f0:	8b 45 08             	mov    0x8(%ebp),%eax
   138f3:	85 c0                	test   %eax,%eax
   138f5:	7f 4a                	jg     13941 <bget+0x5a>
   138f7:	c7 04 24 4f 00 00 00 	movl   $0x4f,(%esp)
   138fe:	e8 f0 d7 ff ff       	call   110f3 <Set_Current_Attr>
   13903:	a1 d0 07 02 00       	mov    0x207d0,%eax
   13908:	89 44 24 18          	mov    %eax,0x18(%esp)
   1390c:	8b 45 04             	mov    0x4(%ebp),%eax
   1390f:	89 44 24 14          	mov    %eax,0x14(%esp)
   13913:	c7 44 24 10 4d 02 00 	movl   $0x24d,0x10(%esp)
   1391a:	00 
   1391b:	c7 44 24 0c b1 d5 01 	movl   $0x1d5b1,0xc(%esp)
   13922:	00 
   13923:	c7 44 24 08 a3 d6 01 	movl   $0x1d6a3,0x8(%esp)
   1392a:	00 
   1392b:	c7 44 24 04 71 d8 01 	movl   $0x1d871,0x4(%esp)
   13932:	00 
   13933:	c7 04 24 1c cc 01 00 	movl   $0x1cc1c,(%esp)
   1393a:	e8 7d d6 ff ff       	call   10fbc <Print>
   1393f:	eb fe                	jmp    1393f <bget+0x58>
   13941:	89 c2                	mov    %eax,%edx
   13943:	83 f8 07             	cmp    $0x7,%eax
   13946:	77 05                	ja     1394d <bget+0x66>
   13948:	ba 08 00 00 00       	mov    $0x8,%edx
   1394d:	83 c2 03             	add    $0x3,%edx
   13950:	89 d6                	mov    %edx,%esi
   13952:	83 e6 fc             	and    $0xfffffffc,%esi
   13955:	83 c6 08             	add    $0x8,%esi
   13958:	89 f3                	mov    %esi,%ebx
   1395a:	8b 15 18 f0 01 00    	mov    0x1f018,%edx
   13960:	b8 10 f0 01 00       	mov    $0x1f010,%eax
   13965:	eb 18                	jmp    1397f <bget+0x98>
   13967:	8b 4a 04             	mov    0x4(%edx),%ecx
   1396a:	39 cb                	cmp    %ecx,%ebx
   1396c:	7f 0e                	jg     1397c <bget+0x95>
   1396e:	3d 10 f0 01 00       	cmp    $0x1f010,%eax
   13973:	74 05                	je     1397a <bget+0x93>
   13975:	3b 48 04             	cmp    0x4(%eax),%ecx
   13978:	7d 02                	jge    1397c <bget+0x95>
   1397a:	89 d0                	mov    %edx,%eax
   1397c:	8b 52 08             	mov    0x8(%edx),%edx
   1397f:	81 fa 10 f0 01 00    	cmp    $0x1f010,%edx
   13985:	75 e0                	jne    13967 <bget+0x80>
   13987:	e9 94 01 00 00       	jmp    13b20 <bget+0x239>
   1398c:	8b 50 04             	mov    0x4(%eax),%edx
   1398f:	39 d3                	cmp    %edx,%ebx
   13991:	0f 8f 86 01 00 00    	jg     13b1d <bget+0x236>
   13997:	89 d7                	mov    %edx,%edi
   13999:	29 df                	sub    %ebx,%edi
   1399b:	83 ff 10             	cmp    $0x10,%edi
   1399e:	76 6c                	jbe    13a0c <bget+0x125>
   139a0:	8d 0c 38             	lea    (%eax,%edi,1),%ecx
   139a3:	8d 34 31             	lea    (%ecx,%esi,1),%esi
   139a6:	39 16                	cmp    %edx,(%esi)
   139a8:	74 4a                	je     139f4 <bget+0x10d>
   139aa:	c7 04 24 4f 00 00 00 	movl   $0x4f,(%esp)
   139b1:	e8 3d d7 ff ff       	call   110f3 <Set_Current_Attr>
   139b6:	a1 d0 07 02 00       	mov    0x207d0,%eax
   139bb:	89 44 24 18          	mov    %eax,0x18(%esp)
   139bf:	8b 45 04             	mov    0x4(%ebp),%eax
   139c2:	89 44 24 14          	mov    %eax,0x14(%esp)
   139c6:	c7 44 24 10 88 02 00 	movl   $0x288,0x10(%esp)
   139cd:	00 
   139ce:	c7 44 24 0c b1 d5 01 	movl   $0x1d5b1,0xc(%esp)
   139d5:	00 
   139d6:	c7 44 24 08 34 d6 01 	movl   $0x1d634,0x8(%esp)
   139dd:	00 
   139de:	c7 44 24 04 71 d8 01 	movl   $0x1d871,0x4(%esp)
   139e5:	00 
   139e6:	c7 04 24 1c cc 01 00 	movl   $0x1cc1c,(%esp)
   139ed:	e8 ca d5 ff ff       	call   10fbc <Print>
   139f2:	eb fe                	jmp    139f2 <bget+0x10b>
   139f4:	89 78 04             	mov    %edi,0x4(%eax)
   139f7:	89 39                	mov    %edi,(%ecx)
   139f9:	f7 db                	neg    %ebx
   139fb:	89 59 04             	mov    %ebx,0x4(%ecx)
   139fe:	c7 06 00 00 00 00    	movl   $0x0,(%esi)
   13a04:	8d 41 08             	lea    0x8(%ecx),%eax
   13a07:	e9 24 01 00 00       	jmp    13b30 <bget+0x249>
   13a0c:	8d 0c 10             	lea    (%eax,%edx,1),%ecx
   13a0f:	39 11                	cmp    %edx,(%ecx)
   13a11:	74 4a                	je     13a5d <bget+0x176>
   13a13:	c7 04 24 4f 00 00 00 	movl   $0x4f,(%esp)
   13a1a:	e8 d4 d6 ff ff       	call   110f3 <Set_Current_Attr>
   13a1f:	a1 d0 07 02 00       	mov    0x207d0,%eax
   13a24:	89 44 24 18          	mov    %eax,0x18(%esp)
   13a28:	8b 45 04             	mov    0x4(%ebp),%eax
   13a2b:	89 44 24 14          	mov    %eax,0x14(%esp)
   13a2f:	c7 44 24 10 9c 02 00 	movl   $0x29c,0x10(%esp)
   13a36:	00 
   13a37:	c7 44 24 0c b1 d5 01 	movl   $0x1d5b1,0xc(%esp)
   13a3e:	00 
   13a3f:	c7 44 24 08 50 d6 01 	movl   $0x1d650,0x8(%esp)
   13a46:	00 
   13a47:	c7 44 24 04 71 d8 01 	movl   $0x1d871,0x4(%esp)
   13a4e:	00 
   13a4f:	c7 04 24 1c cc 01 00 	movl   $0x1cc1c,(%esp)
   13a56:	e8 61 d5 ff ff       	call   10fbc <Print>
   13a5b:	eb fe                	jmp    13a5b <bget+0x174>
   13a5d:	8b 58 0c             	mov    0xc(%eax),%ebx
   13a60:	8b 53 08             	mov    0x8(%ebx),%edx
   13a63:	39 c2                	cmp    %eax,%edx
   13a65:	74 4a                	je     13ab1 <bget+0x1ca>
   13a67:	c7 04 24 4f 00 00 00 	movl   $0x4f,(%esp)
   13a6e:	e8 80 d6 ff ff       	call   110f3 <Set_Current_Attr>
   13a73:	a1 d0 07 02 00       	mov    0x207d0,%eax
   13a78:	89 44 24 18          	mov    %eax,0x18(%esp)
   13a7c:	8b 45 04             	mov    0x4(%ebp),%eax
   13a7f:	89 44 24 14          	mov    %eax,0x14(%esp)
   13a83:	c7 44 24 10 a1 02 00 	movl   $0x2a1,0x10(%esp)
   13a8a:	00 
   13a8b:	c7 44 24 0c b1 d5 01 	movl   $0x1d5b1,0xc(%esp)
   13a92:	00 
   13a93:	c7 44 24 08 6c d6 01 	movl   $0x1d66c,0x8(%esp)
   13a9a:	00 
   13a9b:	c7 44 24 04 71 d8 01 	movl   $0x1d871,0x4(%esp)
   13aa2:	00 
   13aa3:	c7 04 24 1c cc 01 00 	movl   $0x1cc1c,(%esp)
   13aaa:	e8 0d d5 ff ff       	call   10fbc <Print>
   13aaf:	eb fe                	jmp    13aaf <bget+0x1c8>
   13ab1:	8b 42 08             	mov    0x8(%edx),%eax
   13ab4:	3b 50 0c             	cmp    0xc(%eax),%edx
   13ab7:	74 4a                	je     13b03 <bget+0x21c>
   13ab9:	c7 04 24 4f 00 00 00 	movl   $0x4f,(%esp)
   13ac0:	e8 2e d6 ff ff       	call   110f3 <Set_Current_Attr>
   13ac5:	a1 d0 07 02 00       	mov    0x207d0,%eax
   13aca:	89 44 24 18          	mov    %eax,0x18(%esp)
   13ace:	8b 45 04             	mov    0x4(%ebp),%eax
   13ad1:	89 44 24 14          	mov    %eax,0x14(%esp)
   13ad5:	c7 44 24 10 a2 02 00 	movl   $0x2a2,0x10(%esp)
   13adc:	00 
   13add:	c7 44 24 0c b1 d5 01 	movl   $0x1d5b1,0xc(%esp)
   13ae4:	00 
   13ae5:	c7 44 24 08 87 d6 01 	movl   $0x1d687,0x8(%esp)
   13aec:	00 
   13aed:	c7 44 24 04 71 d8 01 	movl   $0x1d871,0x4(%esp)
   13af4:	00 
   13af5:	c7 04 24 1c cc 01 00 	movl   $0x1cc1c,(%esp)
   13afc:	e8 bb d4 ff ff       	call   10fbc <Print>
   13b01:	eb fe                	jmp    13b01 <bget+0x21a>
   13b03:	89 43 08             	mov    %eax,0x8(%ebx)
   13b06:	8b 42 08             	mov    0x8(%edx),%eax
   13b09:	8b 5a 0c             	mov    0xc(%edx),%ebx
   13b0c:	89 58 0c             	mov    %ebx,0xc(%eax)
   13b0f:	f7 5a 04             	negl   0x4(%edx)
   13b12:	c7 01 00 00 00 00    	movl   $0x0,(%ecx)
   13b18:	8d 42 08             	lea    0x8(%edx),%eax
   13b1b:	eb 13                	jmp    13b30 <bget+0x249>
   13b1d:	8b 40 08             	mov    0x8(%eax),%eax
   13b20:	3d 10 f0 01 00       	cmp    $0x1f010,%eax
   13b25:	0f 85 61 fe ff ff    	jne    1398c <bget+0xa5>
   13b2b:	b8 00 00 00 00       	mov    $0x0,%eax
   13b30:	83 c4 2c             	add    $0x2c,%esp
   13b33:	5b                   	pop    %ebx
   13b34:	5e                   	pop    %esi
   13b35:	5f                   	pop    %edi
   13b36:	5d                   	pop    %ebp
   13b37:	c3                   	ret    

00013b38 <bgetr>:
   13b38:	55                   	push   %ebp
   13b39:	89 e5                	mov    %esp,%ebp
   13b3b:	57                   	push   %edi
   13b3c:	56                   	push   %esi
   13b3d:	53                   	push   %ebx
   13b3e:	83 ec 2c             	sub    $0x2c,%esp
   13b41:	8b 5d 08             	mov    0x8(%ebp),%ebx
   13b44:	8b 7d 0c             	mov    0xc(%ebp),%edi
   13b47:	89 3c 24             	mov    %edi,(%esp)
   13b4a:	e8 98 fd ff ff       	call   138e7 <bget>
   13b4f:	89 c6                	mov    %eax,%esi
   13b51:	85 c0                	test   %eax,%eax
   13b53:	74 78                	je     13bcd <bgetr+0x95>
   13b55:	85 db                	test   %ebx,%ebx
   13b57:	74 74                	je     13bcd <bgetr+0x95>
   13b59:	b8 f8 ff ff ff       	mov    $0xfffffff8,%eax
   13b5e:	2b 43 fc             	sub    -0x4(%ebx),%eax
   13b61:	85 c0                	test   %eax,%eax
   13b63:	7f 4a                	jg     13baf <bgetr+0x77>
   13b65:	c7 04 24 4f 00 00 00 	movl   $0x4f,(%esp)
   13b6c:	e8 82 d5 ff ff       	call   110f3 <Set_Current_Attr>
   13b71:	a1 d0 07 02 00       	mov    0x207d0,%eax
   13b76:	89 44 24 18          	mov    %eax,0x18(%esp)
   13b7a:	8b 45 04             	mov    0x4(%ebp),%eax
   13b7d:	89 44 24 14          	mov    %eax,0x14(%esp)
   13b81:	c7 44 24 10 32 03 00 	movl   $0x332,0x10(%esp)
   13b88:	00 
   13b89:	c7 44 24 0c b1 d5 01 	movl   $0x1d5b1,0xc(%esp)
   13b90:	00 
   13b91:	c7 44 24 08 a2 d6 01 	movl   $0x1d6a2,0x8(%esp)
   13b98:	00 
   13b99:	c7 44 24 04 65 d8 01 	movl   $0x1d865,0x4(%esp)
   13ba0:	00 
   13ba1:	c7 04 24 1c cc 01 00 	movl   $0x1cc1c,(%esp)
   13ba8:	e8 0f d4 ff ff       	call   10fbc <Print>
   13bad:	eb fe                	jmp    13bad <bgetr+0x75>
   13baf:	39 f8                	cmp    %edi,%eax
   13bb1:	7e 02                	jle    13bb5 <bgetr+0x7d>
   13bb3:	89 f8                	mov    %edi,%eax
   13bb5:	89 44 24 08          	mov    %eax,0x8(%esp)
   13bb9:	89 5c 24 04          	mov    %ebx,0x4(%esp)
   13bbd:	89 34 24             	mov    %esi,(%esp)
   13bc0:	e8 6e 8b 00 00       	call   1c733 <memcpy>
   13bc5:	89 1c 24             	mov    %ebx,(%esp)
   13bc8:	e8 6b f9 ff ff       	call   13538 <brel>
   13bcd:	89 f0                	mov    %esi,%eax
   13bcf:	83 c4 2c             	add    $0x2c,%esp
   13bd2:	5b                   	pop    %ebx
   13bd3:	5e                   	pop    %esi
   13bd4:	5f                   	pop    %edi
   13bd5:	5d                   	pop    %ebp
   13bd6:	c3                   	ret    

00013bd7 <bgetz>:
   13bd7:	55                   	push   %ebp
   13bd8:	89 e5                	mov    %esp,%ebp
   13bda:	56                   	push   %esi
   13bdb:	53                   	push   %ebx
   13bdc:	83 ec 20             	sub    $0x20,%esp
   13bdf:	8b 75 08             	mov    0x8(%ebp),%esi
   13be2:	89 34 24             	mov    %esi,(%esp)
   13be5:	e8 fd fc ff ff       	call   138e7 <bget>
   13bea:	89 c3                	mov    %eax,%ebx
   13bec:	85 c0                	test   %eax,%eax
   13bee:	74 74                	je     13c64 <bgetz+0x8d>
   13bf0:	8b 40 fc             	mov    -0x4(%eax),%eax
   13bf3:	f7 d8                	neg    %eax
   13bf5:	75 08                	jne    13bff <bgetz+0x28>
   13bf7:	8b 43 f4             	mov    -0xc(%ebx),%eax
   13bfa:	83 e8 0c             	sub    $0xc,%eax
   13bfd:	eb 03                	jmp    13c02 <bgetz+0x2b>
   13bff:	83 e8 08             	sub    $0x8,%eax
   13c02:	39 f0                	cmp    %esi,%eax
   13c04:	7d 4a                	jge    13c50 <bgetz+0x79>
   13c06:	c7 04 24 4f 00 00 00 	movl   $0x4f,(%esp)
   13c0d:	e8 e1 d4 ff ff       	call   110f3 <Set_Current_Attr>
   13c12:	a1 d0 07 02 00       	mov    0x207d0,%eax
   13c17:	89 44 24 18          	mov    %eax,0x18(%esp)
   13c1b:	8b 45 04             	mov    0x4(%ebp),%eax
   13c1e:	89 44 24 14          	mov    %eax,0x14(%esp)
   13c22:	c7 44 24 10 0d 03 00 	movl   $0x30d,0x10(%esp)
   13c29:	00 
   13c2a:	c7 44 24 0c b1 d5 01 	movl   $0x1d5b1,0xc(%esp)
   13c31:	00 
   13c32:	c7 44 24 08 ac d6 01 	movl   $0x1d6ac,0x8(%esp)
   13c39:	00 
   13c3a:	c7 44 24 04 6b d8 01 	movl   $0x1d86b,0x4(%esp)
   13c41:	00 
   13c42:	c7 04 24 1c cc 01 00 	movl   $0x1cc1c,(%esp)
   13c49:	e8 6e d3 ff ff       	call   10fbc <Print>
   13c4e:	eb fe                	jmp    13c4e <bgetz+0x77>
   13c50:	89 44 24 08          	mov    %eax,0x8(%esp)
   13c54:	c7 44 24 04 00 00 00 	movl   $0x0,0x4(%esp)
   13c5b:	00 
   13c5c:	89 1c 24             	mov    %ebx,(%esp)
   13c5f:	e8 ac 8a 00 00       	call   1c710 <memset>
   13c64:	89 d8                	mov    %ebx,%eax
   13c66:	83 c4 20             	add    $0x20,%esp
   13c69:	5b                   	pop    %ebx
   13c6a:	5e                   	pop    %esi
   13c6b:	5d                   	pop    %ebp
   13c6c:	c3                   	ret    
   13c6d:	90                   	nop
   13c6e:	90                   	nop
   13c6f:	90                   	nop

00013c70 <Malloc>:
   13c70:	55                   	push   %ebp
   13c71:	89 e5                	mov    %esp,%ebp
   13c73:	56                   	push   %esi
   13c74:	53                   	push   %ebx
   13c75:	83 ec 20             	sub    $0x20,%esp
   13c78:	8b 75 08             	mov    0x8(%ebp),%esi
   13c7b:	85 f6                	test   %esi,%esi
   13c7d:	75 4a                	jne    13cc9 <Malloc+0x59>
   13c7f:	c7 04 24 4f 00 00 00 	movl   $0x4f,(%esp)
   13c86:	e8 68 d4 ff ff       	call   110f3 <Set_Current_Attr>
   13c8b:	a1 d0 07 02 00       	mov    0x207d0,%eax
   13c90:	89 44 24 18          	mov    %eax,0x18(%esp)
   13c94:	8b 45 04             	mov    0x4(%ebp),%eax
   13c97:	89 44 24 14          	mov    %eax,0x14(%esp)
   13c9b:	c7 44 24 10 24 00 00 	movl   $0x24,0x10(%esp)
   13ca2:	00 
   13ca3:	c7 44 24 0c 76 d8 01 	movl   $0x1d876,0xc(%esp)
   13caa:	00 
   13cab:	c7 44 24 08 a3 d6 01 	movl   $0x1d6a3,0x8(%esp)
   13cb2:	00 
   13cb3:	c7 44 24 04 ad d8 01 	movl   $0x1d8ad,0x4(%esp)
   13cba:	00 
   13cbb:	c7 04 24 1c cc 01 00 	movl   $0x1cc1c,(%esp)
   13cc2:	e8 f5 d2 ff ff       	call   10fbc <Print>
   13cc7:	eb fe                	jmp    13cc7 <Malloc+0x57>
   13cc9:	e8 83 c6 ff ff       	call   10351 <Interrupts_Enabled>
   13cce:	89 c3                	mov    %eax,%ebx
   13cd0:	84 c0                	test   %al,%al
   13cd2:	74 54                	je     13d28 <Malloc+0xb8>
   13cd4:	e8 78 c6 ff ff       	call   10351 <Interrupts_Enabled>
   13cd9:	84 c0                	test   %al,%al
   13cdb:	75 4a                	jne    13d27 <Malloc+0xb7>
   13cdd:	c7 04 24 4f 00 00 00 	movl   $0x4f,(%esp)
   13ce4:	e8 0a d4 ff ff       	call   110f3 <Set_Current_Attr>
   13ce9:	a1 d0 07 02 00       	mov    0x207d0,%eax
   13cee:	89 44 24 18          	mov    %eax,0x18(%esp)
   13cf2:	8b 45 04             	mov    0x4(%ebp),%eax
   13cf5:	89 44 24 14          	mov    %eax,0x14(%esp)
   13cf9:	c7 44 24 10 8f 00 00 	movl   $0x8f,0x10(%esp)
   13d00:	00 
   13d01:	c7 44 24 0c 6e ce 01 	movl   $0x1ce6e,0xc(%esp)
   13d08:	00 
   13d09:	c7 44 24 08 5f cd 01 	movl   $0x1cd5f,0x8(%esp)
   13d10:	00 
   13d11:	c7 44 24 04 8d d8 01 	movl   $0x1d88d,0x4(%esp)
   13d18:	00 
   13d19:	c7 04 24 1c cc 01 00 	movl   $0x1cc1c,(%esp)
   13d20:	e8 97 d2 ff ff       	call   10fbc <Print>
   13d25:	eb fe                	jmp    13d25 <Malloc+0xb5>
   13d27:	fa                   	cli    
   13d28:	89 34 24             	mov    %esi,(%esp)
   13d2b:	e8 b7 fb ff ff       	call   138e7 <bget>
   13d30:	89 c6                	mov    %eax,%esi
   13d32:	e8 1a c6 ff ff       	call   10351 <Interrupts_Enabled>
   13d37:	84 c0                	test   %al,%al
   13d39:	74 4a                	je     13d85 <Malloc+0x115>
   13d3b:	c7 04 24 4f 00 00 00 	movl   $0x4f,(%esp)
   13d42:	e8 ac d3 ff ff       	call   110f3 <Set_Current_Attr>
   13d47:	a1 d0 07 02 00       	mov    0x207d0,%eax
   13d4c:	89 44 24 18          	mov    %eax,0x18(%esp)
   13d50:	8b 45 04             	mov    0x4(%ebp),%eax
   13d53:	89 44 24 14          	mov    %eax,0x14(%esp)
   13d57:	c7 44 24 10 99 00 00 	movl   $0x99,0x10(%esp)
   13d5e:	00 
   13d5f:	c7 44 24 0c 6e ce 01 	movl   $0x1ce6e,0xc(%esp)
   13d66:	00 
   13d67:	c7 44 24 08 5e cd 01 	movl   $0x1cd5e,0x8(%esp)
   13d6e:	00 
   13d6f:	c7 44 24 04 9e d8 01 	movl   $0x1d89e,0x4(%esp)
   13d76:	00 
   13d77:	c7 04 24 1c cc 01 00 	movl   $0x1cc1c,(%esp)
   13d7e:	e8 39 d2 ff ff       	call   10fbc <Print>
   13d83:	eb fe                	jmp    13d83 <Malloc+0x113>
   13d85:	84 db                	test   %bl,%bl
   13d87:	74 5b                	je     13de4 <Malloc+0x174>
   13d89:	8d b4 26 00 00 00 00 	lea    0x0(%esi,%eiz,1),%esi
   13d90:	e8 bc c5 ff ff       	call   10351 <Interrupts_Enabled>
   13d95:	84 c0                	test   %al,%al
   13d97:	74 4a                	je     13de3 <Malloc+0x173>
   13d99:	c7 04 24 4f 00 00 00 	movl   $0x4f,(%esp)
   13da0:	e8 4e d3 ff ff       	call   110f3 <Set_Current_Attr>
   13da5:	a1 d0 07 02 00       	mov    0x207d0,%eax
   13daa:	89 44 24 18          	mov    %eax,0x18(%esp)
   13dae:	8b 45 04             	mov    0x4(%ebp),%eax
   13db1:	89 44 24 14          	mov    %eax,0x14(%esp)
   13db5:	c7 44 24 10 9c 00 00 	movl   $0x9c,0x10(%esp)
   13dbc:	00 
   13dbd:	c7 44 24 0c 6e ce 01 	movl   $0x1ce6e,0xc(%esp)
   13dc4:	00 
   13dc5:	c7 44 24 08 5e cd 01 	movl   $0x1cd5e,0x8(%esp)
   13dcc:	00 
   13dcd:	c7 44 24 04 9e d8 01 	movl   $0x1d89e,0x4(%esp)
   13dd4:	00 
   13dd5:	c7 04 24 1c cc 01 00 	movl   $0x1cc1c,(%esp)
   13ddc:	e8 db d1 ff ff       	call   10fbc <Print>
   13de1:	eb fe                	jmp    13de1 <Malloc+0x171>
   13de3:	fb                   	sti    
   13de4:	89 f0                	mov    %esi,%eax
   13de6:	83 c4 20             	add    $0x20,%esp
   13de9:	5b                   	pop    %ebx
   13dea:	5e                   	pop    %esi
   13deb:	5d                   	pop    %ebp
   13dec:	c3                   	ret    

00013ded <Init_Heap>:
   13ded:	55                   	push   %ebp
   13dee:	89 e5                	mov    %esp,%ebp
   13df0:	83 ec 18             	sub    $0x18,%esp
   13df3:	8b 45 0c             	mov    0xc(%ebp),%eax
   13df6:	89 44 24 04          	mov    %eax,0x4(%esp)
   13dfa:	8b 45 08             	mov    0x8(%ebp),%eax
   13dfd:	89 04 24             	mov    %eax,(%esp)
   13e00:	e8 eb f5 ff ff       	call   133f0 <bpool>
   13e05:	c9                   	leave  
   13e06:	c3                   	ret    

00013e07 <Free>:
   13e07:	55                   	push   %ebp
   13e08:	89 e5                	mov    %esp,%ebp
   13e0a:	53                   	push   %ebx
   13e0b:	83 ec 24             	sub    $0x24,%esp
   13e0e:	e8 3e c5 ff ff       	call   10351 <Interrupts_Enabled>
   13e13:	89 c3                	mov    %eax,%ebx
   13e15:	84 c0                	test   %al,%al
   13e17:	74 54                	je     13e6d <Free+0x66>
   13e19:	e8 33 c5 ff ff       	call   10351 <Interrupts_Enabled>
   13e1e:	84 c0                	test   %al,%al
   13e20:	75 4a                	jne    13e6c <Free+0x65>
   13e22:	c7 04 24 4f 00 00 00 	movl   $0x4f,(%esp)
   13e29:	e8 c5 d2 ff ff       	call   110f3 <Set_Current_Attr>
   13e2e:	a1 d0 07 02 00       	mov    0x207d0,%eax
   13e33:	89 44 24 18          	mov    %eax,0x18(%esp)
   13e37:	8b 45 04             	mov    0x4(%ebp),%eax
   13e3a:	89 44 24 14          	mov    %eax,0x14(%esp)
   13e3e:	c7 44 24 10 8f 00 00 	movl   $0x8f,0x10(%esp)
   13e45:	00 
   13e46:	c7 44 24 0c 6e ce 01 	movl   $0x1ce6e,0xc(%esp)
   13e4d:	00 
   13e4e:	c7 44 24 08 5f cd 01 	movl   $0x1cd5f,0x8(%esp)
   13e55:	00 
   13e56:	c7 44 24 04 8d d8 01 	movl   $0x1d88d,0x4(%esp)
   13e5d:	00 
   13e5e:	c7 04 24 1c cc 01 00 	movl   $0x1cc1c,(%esp)
   13e65:	e8 52 d1 ff ff       	call   10fbc <Print>
   13e6a:	eb fe                	jmp    13e6a <Free+0x63>
   13e6c:	fa                   	cli    
   13e6d:	8b 45 08             	mov    0x8(%ebp),%eax
   13e70:	89 04 24             	mov    %eax,(%esp)
   13e73:	e8 c0 f6 ff ff       	call   13538 <brel>
   13e78:	e8 d4 c4 ff ff       	call   10351 <Interrupts_Enabled>
   13e7d:	84 c0                	test   %al,%al
   13e7f:	74 4a                	je     13ecb <Free+0xc4>
   13e81:	c7 04 24 4f 00 00 00 	movl   $0x4f,(%esp)
   13e88:	e8 66 d2 ff ff       	call   110f3 <Set_Current_Attr>
   13e8d:	a1 d0 07 02 00       	mov    0x207d0,%eax
   13e92:	89 44 24 18          	mov    %eax,0x18(%esp)
   13e96:	8b 45 04             	mov    0x4(%ebp),%eax
   13e99:	89 44 24 14          	mov    %eax,0x14(%esp)
   13e9d:	c7 44 24 10 99 00 00 	movl   $0x99,0x10(%esp)
   13ea4:	00 
   13ea5:	c7 44 24 0c 6e ce 01 	movl   $0x1ce6e,0xc(%esp)
   13eac:	00 
   13ead:	c7 44 24 08 5e cd 01 	movl   $0x1cd5e,0x8(%esp)
   13eb4:	00 
   13eb5:	c7 44 24 04 9e d8 01 	movl   $0x1d89e,0x4(%esp)
   13ebc:	00 
   13ebd:	c7 04 24 1c cc 01 00 	movl   $0x1cc1c,(%esp)
   13ec4:	e8 f3 d0 ff ff       	call   10fbc <Print>
   13ec9:	eb fe                	jmp    13ec9 <Free+0xc2>
   13ecb:	84 db                	test   %bl,%bl
   13ecd:	74 55                	je     13f24 <Free+0x11d>
   13ecf:	90                   	nop
   13ed0:	e8 7c c4 ff ff       	call   10351 <Interrupts_Enabled>
   13ed5:	84 c0                	test   %al,%al
   13ed7:	74 4a                	je     13f23 <Free+0x11c>
   13ed9:	c7 04 24 4f 00 00 00 	movl   $0x4f,(%esp)
   13ee0:	e8 0e d2 ff ff       	call   110f3 <Set_Current_Attr>
   13ee5:	a1 d0 07 02 00       	mov    0x207d0,%eax
   13eea:	89 44 24 18          	mov    %eax,0x18(%esp)
   13eee:	8b 45 04             	mov    0x4(%ebp),%eax
   13ef1:	89 44 24 14          	mov    %eax,0x14(%esp)
   13ef5:	c7 44 24 10 9c 00 00 	movl   $0x9c,0x10(%esp)
   13efc:	00 
   13efd:	c7 44 24 0c 6e ce 01 	movl   $0x1ce6e,0xc(%esp)
   13f04:	00 
   13f05:	c7 44 24 08 5e cd 01 	movl   $0x1cd5e,0x8(%esp)
   13f0c:	00 
   13f0d:	c7 44 24 04 9e d8 01 	movl   $0x1d89e,0x4(%esp)
   13f14:	00 
   13f15:	c7 04 24 1c cc 01 00 	movl   $0x1cc1c,(%esp)
   13f1c:	e8 9b d0 ff ff       	call   10fbc <Print>
   13f21:	eb fe                	jmp    13f21 <Free+0x11a>
   13f23:	fb                   	sti    
   13f24:	83 c4 24             	add    $0x24,%esp
   13f27:	5b                   	pop    %ebx
   13f28:	5d                   	pop    %ebp
   13f29:	c3                   	ret    
   13f2a:	90                   	nop
   13f2b:	90                   	nop
   13f2c:	90                   	nop
   13f2d:	90                   	nop
   13f2e:	90                   	nop
   13f2f:	90                   	nop

00013f30 <Mutex_Init>:
   13f30:	55                   	push   %ebp
   13f31:	89 e5                	mov    %esp,%ebp
   13f33:	8b 45 08             	mov    0x8(%ebp),%eax
   13f36:	c7 00 00 00 00 00    	movl   $0x0,(%eax)
   13f3c:	c7 40 04 00 00 00 00 	movl   $0x0,0x4(%eax)
   13f43:	c7 40 0c 00 00 00 00 	movl   $0x0,0xc(%eax)
   13f4a:	c7 40 08 00 00 00 00 	movl   $0x0,0x8(%eax)
   13f51:	5d                   	pop    %ebp
   13f52:	c3                   	ret    

00013f53 <Cond_Init>:
   13f53:	55                   	push   %ebp
   13f54:	89 e5                	mov    %esp,%ebp
   13f56:	8b 45 08             	mov    0x8(%ebp),%eax
   13f59:	c7 40 04 00 00 00 00 	movl   $0x0,0x4(%eax)
   13f60:	c7 00 00 00 00 00    	movl   $0x0,(%eax)
   13f66:	5d                   	pop    %ebp
   13f67:	c3                   	ret    

00013f68 <Cond_Broadcast>:
   13f68:	55                   	push   %ebp
   13f69:	89 e5                	mov    %esp,%ebp
   13f6b:	83 ec 28             	sub    $0x28,%esp
   13f6e:	e8 de c3 ff ff       	call   10351 <Interrupts_Enabled>
   13f73:	84 c0                	test   %al,%al
   13f75:	75 4a                	jne    13fc1 <Cond_Broadcast+0x59>
   13f77:	c7 04 24 4f 00 00 00 	movl   $0x4f,(%esp)
   13f7e:	e8 70 d1 ff ff       	call   110f3 <Set_Current_Attr>
   13f83:	a1 d0 07 02 00       	mov    0x207d0,%eax
   13f88:	89 44 24 18          	mov    %eax,0x18(%esp)
   13f8c:	8b 45 04             	mov    0x4(%ebp),%eax
   13f8f:	89 44 24 14          	mov    %eax,0x14(%esp)
   13f93:	c7 44 24 10 ca 00 00 	movl   $0xca,0x10(%esp)
   13f9a:	00 
   13f9b:	c7 44 24 0c b4 d8 01 	movl   $0x1d8b4,0xc(%esp)
   13fa2:	00 
   13fa3:	c7 44 24 08 5f cd 01 	movl   $0x1cd5f,0x8(%esp)
   13faa:	00 
   13fab:	c7 44 24 04 f7 d8 01 	movl   $0x1d8f7,0x4(%esp)
   13fb2:	00 
   13fb3:	c7 04 24 1c cc 01 00 	movl   $0x1cc1c,(%esp)
   13fba:	e8 fd cf ff ff       	call   10fbc <Print>
   13fbf:	eb fe                	jmp    13fbf <Cond_Broadcast+0x57>
   13fc1:	e8 8b c3 ff ff       	call   10351 <Interrupts_Enabled>
   13fc6:	84 c0                	test   %al,%al
   13fc8:	75 4a                	jne    14014 <Cond_Broadcast+0xac>
   13fca:	c7 04 24 4f 00 00 00 	movl   $0x4f,(%esp)
   13fd1:	e8 1d d1 ff ff       	call   110f3 <Set_Current_Attr>
   13fd6:	a1 d0 07 02 00       	mov    0x207d0,%eax
   13fdb:	89 44 24 18          	mov    %eax,0x18(%esp)
   13fdf:	8b 45 04             	mov    0x4(%ebp),%eax
   13fe2:	89 44 24 14          	mov    %eax,0x14(%esp)
   13fe6:	c7 44 24 10 cb 00 00 	movl   $0xcb,0x10(%esp)
   13fed:	00 
   13fee:	c7 44 24 0c b4 d8 01 	movl   $0x1d8b4,0xc(%esp)
   13ff5:	00 
   13ff6:	c7 44 24 08 5f cd 01 	movl   $0x1cd5f,0x8(%esp)
   13ffd:	00 
   13ffe:	c7 44 24 04 f7 d8 01 	movl   $0x1d8f7,0x4(%esp)
   14005:	00 
   14006:	c7 04 24 1c cc 01 00 	movl   $0x1cc1c,(%esp)
   1400d:	e8 aa cf ff ff       	call   10fbc <Print>
   14012:	eb fe                	jmp    14012 <Cond_Broadcast+0xaa>
   14014:	fa                   	cli    
   14015:	8b 45 08             	mov    0x8(%ebp),%eax
   14018:	89 04 24             	mov    %eax,(%esp)
   1401b:	e8 2f 13 00 00       	call   1534f <Wake_Up>
   14020:	e8 2c c3 ff ff       	call   10351 <Interrupts_Enabled>
   14025:	84 c0                	test   %al,%al
   14027:	74 4a                	je     14073 <Cond_Broadcast+0x10b>
   14029:	c7 04 24 4f 00 00 00 	movl   $0x4f,(%esp)
   14030:	e8 be d0 ff ff       	call   110f3 <Set_Current_Attr>
   14035:	a1 d0 07 02 00       	mov    0x207d0,%eax
   1403a:	89 44 24 18          	mov    %eax,0x18(%esp)
   1403e:	8b 45 04             	mov    0x4(%ebp),%eax
   14041:	89 44 24 14          	mov    %eax,0x14(%esp)
   14045:	c7 44 24 10 cd 00 00 	movl   $0xcd,0x10(%esp)
   1404c:	00 
   1404d:	c7 44 24 0c b4 d8 01 	movl   $0x1d8b4,0xc(%esp)
   14054:	00 
   14055:	c7 44 24 08 5e cd 01 	movl   $0x1cd5e,0x8(%esp)
   1405c:	00 
   1405d:	c7 44 24 04 f7 d8 01 	movl   $0x1d8f7,0x4(%esp)
   14064:	00 
   14065:	c7 04 24 1c cc 01 00 	movl   $0x1cc1c,(%esp)
   1406c:	e8 4b cf ff ff       	call   10fbc <Print>
   14071:	eb fe                	jmp    14071 <Cond_Broadcast+0x109>
   14073:	fb                   	sti    
   14074:	c9                   	leave  
   14075:	c3                   	ret    

00014076 <Cond_Signal>:
   14076:	55                   	push   %ebp
   14077:	89 e5                	mov    %esp,%ebp
   14079:	83 ec 28             	sub    $0x28,%esp
   1407c:	e8 d0 c2 ff ff       	call   10351 <Interrupts_Enabled>
   14081:	84 c0                	test   %al,%al
   14083:	75 4a                	jne    140cf <Cond_Signal+0x59>
   14085:	c7 04 24 4f 00 00 00 	movl   $0x4f,(%esp)
   1408c:	e8 62 d0 ff ff       	call   110f3 <Set_Current_Attr>
   14091:	a1 d0 07 02 00       	mov    0x207d0,%eax
   14096:	89 44 24 18          	mov    %eax,0x18(%esp)
   1409a:	8b 45 04             	mov    0x4(%ebp),%eax
   1409d:	89 44 24 14          	mov    %eax,0x14(%esp)
   140a1:	c7 44 24 10 be 00 00 	movl   $0xbe,0x10(%esp)
   140a8:	00 
   140a9:	c7 44 24 0c b4 d8 01 	movl   $0x1d8b4,0xc(%esp)
   140b0:	00 
   140b1:	c7 44 24 08 5f cd 01 	movl   $0x1cd5f,0x8(%esp)
   140b8:	00 
   140b9:	c7 44 24 04 06 d9 01 	movl   $0x1d906,0x4(%esp)
   140c0:	00 
   140c1:	c7 04 24 1c cc 01 00 	movl   $0x1cc1c,(%esp)
   140c8:	e8 ef ce ff ff       	call   10fbc <Print>
   140cd:	eb fe                	jmp    140cd <Cond_Signal+0x57>
   140cf:	e8 7d c2 ff ff       	call   10351 <Interrupts_Enabled>
   140d4:	84 c0                	test   %al,%al
   140d6:	75 4a                	jne    14122 <Cond_Signal+0xac>
   140d8:	c7 04 24 4f 00 00 00 	movl   $0x4f,(%esp)
   140df:	e8 0f d0 ff ff       	call   110f3 <Set_Current_Attr>
   140e4:	a1 d0 07 02 00       	mov    0x207d0,%eax
   140e9:	89 44 24 18          	mov    %eax,0x18(%esp)
   140ed:	8b 45 04             	mov    0x4(%ebp),%eax
   140f0:	89 44 24 14          	mov    %eax,0x14(%esp)
   140f4:	c7 44 24 10 bf 00 00 	movl   $0xbf,0x10(%esp)
   140fb:	00 
   140fc:	c7 44 24 0c b4 d8 01 	movl   $0x1d8b4,0xc(%esp)
   14103:	00 
   14104:	c7 44 24 08 5f cd 01 	movl   $0x1cd5f,0x8(%esp)
   1410b:	00 
   1410c:	c7 44 24 04 06 d9 01 	movl   $0x1d906,0x4(%esp)
   14113:	00 
   14114:	c7 04 24 1c cc 01 00 	movl   $0x1cc1c,(%esp)
   1411b:	e8 9c ce ff ff       	call   10fbc <Print>
   14120:	eb fe                	jmp    14120 <Cond_Signal+0xaa>
   14122:	fa                   	cli    
   14123:	8b 45 08             	mov    0x8(%ebp),%eax
   14126:	89 04 24             	mov    %eax,(%esp)
   14129:	e8 e6 10 00 00       	call   15214 <Wake_Up_One>
   1412e:	e8 1e c2 ff ff       	call   10351 <Interrupts_Enabled>
   14133:	84 c0                	test   %al,%al
   14135:	74 4a                	je     14181 <Cond_Signal+0x10b>
   14137:	c7 04 24 4f 00 00 00 	movl   $0x4f,(%esp)
   1413e:	e8 b0 cf ff ff       	call   110f3 <Set_Current_Attr>
   14143:	a1 d0 07 02 00       	mov    0x207d0,%eax
   14148:	89 44 24 18          	mov    %eax,0x18(%esp)
   1414c:	8b 45 04             	mov    0x4(%ebp),%eax
   1414f:	89 44 24 14          	mov    %eax,0x14(%esp)
   14153:	c7 44 24 10 c1 00 00 	movl   $0xc1,0x10(%esp)
   1415a:	00 
   1415b:	c7 44 24 0c b4 d8 01 	movl   $0x1d8b4,0xc(%esp)
   14162:	00 
   14163:	c7 44 24 08 5e cd 01 	movl   $0x1cd5e,0x8(%esp)
   1416a:	00 
   1416b:	c7 44 24 04 06 d9 01 	movl   $0x1d906,0x4(%esp)
   14172:	00 
   14173:	c7 04 24 1c cc 01 00 	movl   $0x1cc1c,(%esp)
   1417a:	e8 3d ce ff ff       	call   10fbc <Print>
   1417f:	eb fe                	jmp    1417f <Cond_Signal+0x109>
   14181:	fb                   	sti    
   14182:	c9                   	leave  
   14183:	c3                   	ret    

00014184 <Mutex_Wait>:
   14184:	55                   	push   %ebp
   14185:	89 e5                	mov    %esp,%ebp
   14187:	53                   	push   %ebx
   14188:	83 ec 24             	sub    $0x24,%esp
   1418b:	89 c3                	mov    %eax,%ebx
   1418d:	83 38 01             	cmpl   $0x1,(%eax)
   14190:	74 4a                	je     141dc <Mutex_Wait+0x58>
   14192:	c7 04 24 4f 00 00 00 	movl   $0x4f,(%esp)
   14199:	e8 55 cf ff ff       	call   110f3 <Set_Current_Attr>
   1419e:	a1 d0 07 02 00       	mov    0x207d0,%eax
   141a3:	89 44 24 18          	mov    %eax,0x18(%esp)
   141a7:	8b 45 04             	mov    0x4(%ebp),%eax
   141aa:	89 44 24 14          	mov    %eax,0x14(%esp)
   141ae:	c7 44 24 10 25 00 00 	movl   $0x25,0x10(%esp)
   141b5:	00 
   141b6:	c7 44 24 0c b4 d8 01 	movl   $0x1d8b4,0xc(%esp)
   141bd:	00 
   141be:	c7 44 24 08 ca d8 01 	movl   $0x1d8ca,0x8(%esp)
   141c5:	00 
   141c6:	c7 44 24 04 3c d9 01 	movl   $0x1d93c,0x4(%esp)
   141cd:	00 
   141ce:	c7 04 24 1c cc 01 00 	movl   $0x1cc1c,(%esp)
   141d5:	e8 e2 cd ff ff       	call   10fbc <Print>
   141da:	eb fe                	jmp    141da <Mutex_Wait+0x56>
   141dc:	a1 cc 07 02 00       	mov    0x207cc,%eax
   141e1:	85 c0                	test   %eax,%eax
   141e3:	75 4a                	jne    1422f <Mutex_Wait+0xab>
   141e5:	c7 04 24 4f 00 00 00 	movl   $0x4f,(%esp)
   141ec:	e8 02 cf ff ff       	call   110f3 <Set_Current_Attr>
   141f1:	a1 d0 07 02 00       	mov    0x207d0,%eax
   141f6:	89 44 24 18          	mov    %eax,0x18(%esp)
   141fa:	8b 45 04             	mov    0x4(%ebp),%eax
   141fd:	89 44 24 14          	mov    %eax,0x14(%esp)
   14201:	c7 44 24 10 26 00 00 	movl   $0x26,0x10(%esp)
   14208:	00 
   14209:	c7 44 24 0c b4 d8 01 	movl   $0x1d8b4,0xc(%esp)
   14210:	00 
   14211:	c7 44 24 08 cd d9 01 	movl   $0x1d9cd,0x8(%esp)
   14218:	00 
   14219:	c7 44 24 04 3c d9 01 	movl   $0x1d93c,0x4(%esp)
   14220:	00 
   14221:	c7 04 24 1c cc 01 00 	movl   $0x1cc1c,(%esp)
   14228:	e8 8f cd ff ff       	call   10fbc <Print>
   1422d:	eb fe                	jmp    1422d <Mutex_Wait+0xa9>
   1422f:	e8 1d c1 ff ff       	call   10351 <Interrupts_Enabled>
   14234:	84 c0                	test   %al,%al
   14236:	75 4a                	jne    14282 <Mutex_Wait+0xfe>
   14238:	c7 04 24 4f 00 00 00 	movl   $0x4f,(%esp)
   1423f:	e8 af ce ff ff       	call   110f3 <Set_Current_Attr>
   14244:	a1 d0 07 02 00       	mov    0x207d0,%eax
   14249:	89 44 24 18          	mov    %eax,0x18(%esp)
   1424d:	8b 45 04             	mov    0x4(%ebp),%eax
   14250:	89 44 24 14          	mov    %eax,0x14(%esp)
   14254:	c7 44 24 10 28 00 00 	movl   $0x28,0x10(%esp)
   1425b:	00 
   1425c:	c7 44 24 0c b4 d8 01 	movl   $0x1d8b4,0xc(%esp)
   14263:	00 
   14264:	c7 44 24 08 5f cd 01 	movl   $0x1cd5f,0x8(%esp)
   1426b:	00 
   1426c:	c7 44 24 04 3c d9 01 	movl   $0x1d93c,0x4(%esp)
   14273:	00 
   14274:	c7 04 24 1c cc 01 00 	movl   $0x1cc1c,(%esp)
   1427b:	e8 3c cd ff ff       	call   10fbc <Print>
   14280:	eb fe                	jmp    14280 <Mutex_Wait+0xfc>
   14282:	fa                   	cli    
   14283:	c7 05 cc 07 02 00 00 	movl   $0x0,0x207cc
   1428a:	00 00 00 
   1428d:	83 c3 08             	add    $0x8,%ebx
   14290:	89 1c 24             	mov    %ebx,(%esp)
   14293:	e8 87 0d 00 00       	call   1501f <Wait>
   14298:	c7 05 cc 07 02 00 01 	movl   $0x1,0x207cc
   1429f:	00 00 00 
   142a2:	e8 aa c0 ff ff       	call   10351 <Interrupts_Enabled>
   142a7:	84 c0                	test   %al,%al
   142a9:	74 4a                	je     142f5 <Mutex_Wait+0x171>
   142ab:	c7 04 24 4f 00 00 00 	movl   $0x4f,(%esp)
   142b2:	e8 3c ce ff ff       	call   110f3 <Set_Current_Attr>
   142b7:	a1 d0 07 02 00       	mov    0x207d0,%eax
   142bc:	89 44 24 18          	mov    %eax,0x18(%esp)
   142c0:	8b 45 04             	mov    0x4(%ebp),%eax
   142c3:	89 44 24 14          	mov    %eax,0x14(%esp)
   142c7:	c7 44 24 10 2c 00 00 	movl   $0x2c,0x10(%esp)
   142ce:	00 
   142cf:	c7 44 24 0c b4 d8 01 	movl   $0x1d8b4,0xc(%esp)
   142d6:	00 
   142d7:	c7 44 24 08 5e cd 01 	movl   $0x1cd5e,0x8(%esp)
   142de:	00 
   142df:	c7 44 24 04 3c d9 01 	movl   $0x1d93c,0x4(%esp)
   142e6:	00 
   142e7:	c7 04 24 1c cc 01 00 	movl   $0x1cc1c,(%esp)
   142ee:	e8 c9 cc ff ff       	call   10fbc <Print>
   142f3:	eb fe                	jmp    142f3 <Mutex_Wait+0x16f>
   142f5:	fb                   	sti    
   142f6:	83 c4 24             	add    $0x24,%esp
   142f9:	5b                   	pop    %ebx
   142fa:	5d                   	pop    %ebp
   142fb:	c3                   	ret    

000142fc <Cond_Wait>:
   142fc:	55                   	push   %ebp
   142fd:	89 e5                	mov    %esp,%ebp
   142ff:	53                   	push   %ebx
   14300:	83 ec 24             	sub    $0x24,%esp
   14303:	8b 5d 0c             	mov    0xc(%ebp),%ebx
   14306:	e8 46 c0 ff ff       	call   10351 <Interrupts_Enabled>
   1430b:	84 c0                	test   %al,%al
   1430d:	75 4a                	jne    14359 <Cond_Wait+0x5d>
   1430f:	c7 04 24 4f 00 00 00 	movl   $0x4f,(%esp)
   14316:	e8 d8 cd ff ff       	call   110f3 <Set_Current_Attr>
   1431b:	a1 d0 07 02 00       	mov    0x207d0,%eax
   14320:	89 44 24 18          	mov    %eax,0x18(%esp)
   14324:	8b 45 04             	mov    0x4(%ebp),%eax
   14327:	89 44 24 14          	mov    %eax,0x14(%esp)
   1432b:	c7 44 24 10 94 00 00 	movl   $0x94,0x10(%esp)
   14332:	00 
   14333:	c7 44 24 0c b4 d8 01 	movl   $0x1d8b4,0xc(%esp)
   1433a:	00 
   1433b:	c7 44 24 08 5f cd 01 	movl   $0x1cd5f,0x8(%esp)
   14342:	00 
   14343:	c7 44 24 04 12 d9 01 	movl   $0x1d912,0x4(%esp)
   1434a:	00 
   1434b:	c7 04 24 1c cc 01 00 	movl   $0x1cc1c,(%esp)
   14352:	e8 65 cc ff ff       	call   10fbc <Print>
   14357:	eb fe                	jmp    14357 <Cond_Wait+0x5b>
   14359:	83 3b 01             	cmpl   $0x1,(%ebx)
   1435c:	75 0b                	jne    14369 <Cond_Wait+0x6d>
   1435e:	8b 43 04             	mov    0x4(%ebx),%eax
   14361:	3b 05 d0 07 02 00    	cmp    0x207d0,%eax
   14367:	74 4a                	je     143b3 <Cond_Wait+0xb7>
   14369:	c7 04 24 4f 00 00 00 	movl   $0x4f,(%esp)
   14370:	e8 7e cd ff ff       	call   110f3 <Set_Current_Attr>
   14375:	a1 d0 07 02 00       	mov    0x207d0,%eax
   1437a:	89 44 24 18          	mov    %eax,0x18(%esp)
   1437e:	8b 45 04             	mov    0x4(%ebp),%eax
   14381:	89 44 24 14          	mov    %eax,0x14(%esp)
   14385:	c7 44 24 10 97 00 00 	movl   $0x97,0x10(%esp)
   1438c:	00 
   1438d:	c7 44 24 0c b4 d8 01 	movl   $0x1d8b4,0xc(%esp)
   14394:	00 
   14395:	c7 44 24 08 e8 d8 01 	movl   $0x1d8e8,0x8(%esp)
   1439c:	00 
   1439d:	c7 44 24 04 12 d9 01 	movl   $0x1d912,0x4(%esp)
   143a4:	00 
   143a5:	c7 04 24 1c cc 01 00 	movl   $0x1cc1c,(%esp)
   143ac:	e8 0b cc ff ff       	call   10fbc <Print>
   143b1:	eb fe                	jmp    143b1 <Cond_Wait+0xb5>
   143b3:	c7 05 cc 07 02 00 01 	movl   $0x1,0x207cc
   143ba:	00 00 00 
   143bd:	a1 cc 07 02 00       	mov    0x207cc,%eax
   143c2:	85 c0                	test   %eax,%eax
   143c4:	75 4a                	jne    14410 <Cond_Wait+0x114>
   143c6:	c7 04 24 4f 00 00 00 	movl   $0x4f,(%esp)
   143cd:	e8 21 cd ff ff       	call   110f3 <Set_Current_Attr>
   143d2:	a1 d0 07 02 00       	mov    0x207d0,%eax
   143d7:	89 44 24 18          	mov    %eax,0x18(%esp)
   143db:	8b 45 04             	mov    0x4(%ebp),%eax
   143de:	89 44 24 14          	mov    %eax,0x14(%esp)
   143e2:	c7 44 24 10 4a 00 00 	movl   $0x4a,0x10(%esp)
   143e9:	00 
   143ea:	c7 44 24 0c b4 d8 01 	movl   $0x1d8b4,0xc(%esp)
   143f1:	00 
   143f2:	c7 44 24 08 cd d9 01 	movl   $0x1d9cd,0x8(%esp)
   143f9:	00 
   143fa:	c7 44 24 04 1c d9 01 	movl   $0x1d91c,0x4(%esp)
   14401:	00 
   14402:	c7 04 24 1c cc 01 00 	movl   $0x1cc1c,(%esp)
   14409:	e8 ae cb ff ff       	call   10fbc <Print>
   1440e:	eb fe                	jmp    1440e <Cond_Wait+0x112>
   14410:	83 3b 01             	cmpl   $0x1,(%ebx)
   14413:	75 0d                	jne    14422 <Cond_Wait+0x126>
   14415:	8b 43 04             	mov    0x4(%ebx),%eax
   14418:	3b 05 d0 07 02 00    	cmp    0x207d0,%eax
   1441e:	66 90                	xchg   %ax,%ax
   14420:	74 4a                	je     1446c <Cond_Wait+0x170>
   14422:	c7 04 24 4f 00 00 00 	movl   $0x4f,(%esp)
   14429:	e8 c5 cc ff ff       	call   110f3 <Set_Current_Attr>
   1442e:	a1 d0 07 02 00       	mov    0x207d0,%eax
   14433:	89 44 24 18          	mov    %eax,0x18(%esp)
   14437:	8b 45 04             	mov    0x4(%ebp),%eax
   1443a:	89 44 24 14          	mov    %eax,0x14(%esp)
   1443e:	c7 44 24 10 4d 00 00 	movl   $0x4d,0x10(%esp)
   14445:	00 
   14446:	c7 44 24 0c b4 d8 01 	movl   $0x1d8b4,0xc(%esp)
   1444d:	00 
   1444e:	c7 44 24 08 e8 d8 01 	movl   $0x1d8e8,0x8(%esp)
   14455:	00 
   14456:	c7 44 24 04 1c d9 01 	movl   $0x1d91c,0x4(%esp)
   1445d:	00 
   1445e:	c7 04 24 1c cc 01 00 	movl   $0x1cc1c,(%esp)
   14465:	e8 52 cb ff ff       	call   10fbc <Print>
   1446a:	eb fe                	jmp    1446a <Cond_Wait+0x16e>
   1446c:	c7 03 00 00 00 00    	movl   $0x0,(%ebx)
   14472:	c7 43 04 00 00 00 00 	movl   $0x0,0x4(%ebx)
   14479:	83 7b 08 00          	cmpl   $0x0,0x8(%ebx)
   1447d:	0f 84 b3 00 00 00    	je     14536 <Cond_Wait+0x23a>
   14483:	e8 c9 be ff ff       	call   10351 <Interrupts_Enabled>
   14488:	84 c0                	test   %al,%al
   1448a:	75 4a                	jne    144d6 <Cond_Wait+0x1da>
   1448c:	c7 04 24 4f 00 00 00 	movl   $0x4f,(%esp)
   14493:	e8 5b cc ff ff       	call   110f3 <Set_Current_Attr>
   14498:	a1 d0 07 02 00       	mov    0x207d0,%eax
   1449d:	89 44 24 18          	mov    %eax,0x18(%esp)
   144a1:	8b 45 04             	mov    0x4(%ebp),%eax
   144a4:	89 44 24 14          	mov    %eax,0x14(%esp)
   144a8:	c7 44 24 10 5b 00 00 	movl   $0x5b,0x10(%esp)
   144af:	00 
   144b0:	c7 44 24 0c b4 d8 01 	movl   $0x1d8b4,0xc(%esp)
   144b7:	00 
   144b8:	c7 44 24 08 5f cd 01 	movl   $0x1cd5f,0x8(%esp)
   144bf:	00 
   144c0:	c7 44 24 04 1c d9 01 	movl   $0x1d91c,0x4(%esp)
   144c7:	00 
   144c8:	c7 04 24 1c cc 01 00 	movl   $0x1cc1c,(%esp)
   144cf:	e8 e8 ca ff ff       	call   10fbc <Print>
   144d4:	eb fe                	jmp    144d4 <Cond_Wait+0x1d8>
   144d6:	fa                   	cli    
   144d7:	8d 43 08             	lea    0x8(%ebx),%eax
   144da:	89 04 24             	mov    %eax,(%esp)
   144dd:	e8 32 0d 00 00       	call   15214 <Wake_Up_One>
   144e2:	e8 6a be ff ff       	call   10351 <Interrupts_Enabled>
   144e7:	84 c0                	test   %al,%al
   144e9:	74 4a                	je     14535 <Cond_Wait+0x239>
   144eb:	c7 04 24 4f 00 00 00 	movl   $0x4f,(%esp)
   144f2:	e8 fc cb ff ff       	call   110f3 <Set_Current_Attr>
   144f7:	a1 d0 07 02 00       	mov    0x207d0,%eax
   144fc:	89 44 24 18          	mov    %eax,0x18(%esp)
   14500:	8b 45 04             	mov    0x4(%ebp),%eax
   14503:	89 44 24 14          	mov    %eax,0x14(%esp)
   14507:	c7 44 24 10 5d 00 00 	movl   $0x5d,0x10(%esp)
   1450e:	00 
   1450f:	c7 44 24 0c b4 d8 01 	movl   $0x1d8b4,0xc(%esp)
   14516:	00 
   14517:	c7 44 24 08 5e cd 01 	movl   $0x1cd5e,0x8(%esp)
   1451e:	00 
   1451f:	c7 44 24 04 1c d9 01 	movl   $0x1d91c,0x4(%esp)
   14526:	00 
   14527:	c7 04 24 1c cc 01 00 	movl   $0x1cc1c,(%esp)
   1452e:	e8 89 ca ff ff       	call   10fbc <Print>
   14533:	eb fe                	jmp    14533 <Cond_Wait+0x237>
   14535:	fb                   	sti    
   14536:	e8 16 be ff ff       	call   10351 <Interrupts_Enabled>
   1453b:	84 c0                	test   %al,%al
   1453d:	8d 76 00             	lea    0x0(%esi),%esi
   14540:	75 4a                	jne    1458c <Cond_Wait+0x290>
   14542:	c7 04 24 4f 00 00 00 	movl   $0x4f,(%esp)
   14549:	e8 a5 cb ff ff       	call   110f3 <Set_Current_Attr>
   1454e:	a1 d0 07 02 00       	mov    0x207d0,%eax
   14553:	89 44 24 18          	mov    %eax,0x18(%esp)
   14557:	8b 45 04             	mov    0x4(%ebp),%eax
   1455a:	89 44 24 14          	mov    %eax,0x14(%esp)
   1455e:	c7 44 24 10 ab 00 00 	movl   $0xab,0x10(%esp)
   14565:	00 
   14566:	c7 44 24 0c b4 d8 01 	movl   $0x1d8b4,0xc(%esp)
   1456d:	00 
   1456e:	c7 44 24 08 5f cd 01 	movl   $0x1cd5f,0x8(%esp)
   14575:	00 
   14576:	c7 44 24 04 12 d9 01 	movl   $0x1d912,0x4(%esp)
   1457d:	00 
   1457e:	c7 04 24 1c cc 01 00 	movl   $0x1cc1c,(%esp)
   14585:	e8 32 ca ff ff       	call   10fbc <Print>
   1458a:	eb fe                	jmp    1458a <Cond_Wait+0x28e>
   1458c:	fa                   	cli    
   1458d:	c7 05 cc 07 02 00 00 	movl   $0x0,0x207cc
   14594:	00 00 00 
   14597:	8b 45 08             	mov    0x8(%ebp),%eax
   1459a:	89 04 24             	mov    %eax,(%esp)
   1459d:	e8 7d 0a 00 00       	call   1501f <Wait>
   145a2:	c7 05 cc 07 02 00 01 	movl   $0x1,0x207cc
   145a9:	00 00 00 
   145ac:	e8 a0 bd ff ff       	call   10351 <Interrupts_Enabled>
   145b1:	84 c0                	test   %al,%al
   145b3:	74 4a                	je     145ff <Cond_Wait+0x303>
   145b5:	c7 04 24 4f 00 00 00 	movl   $0x4f,(%esp)
   145bc:	e8 32 cb ff ff       	call   110f3 <Set_Current_Attr>
   145c1:	a1 d0 07 02 00       	mov    0x207d0,%eax
   145c6:	89 44 24 18          	mov    %eax,0x18(%esp)
   145ca:	8b 45 04             	mov    0x4(%ebp),%eax
   145cd:	89 44 24 14          	mov    %eax,0x14(%esp)
   145d1:	c7 44 24 10 af 00 00 	movl   $0xaf,0x10(%esp)
   145d8:	00 
   145d9:	c7 44 24 0c b4 d8 01 	movl   $0x1d8b4,0xc(%esp)
   145e0:	00 
   145e1:	c7 44 24 08 5e cd 01 	movl   $0x1cd5e,0x8(%esp)
   145e8:	00 
   145e9:	c7 44 24 04 12 d9 01 	movl   $0x1d912,0x4(%esp)
   145f0:	00 
   145f1:	c7 04 24 1c cc 01 00 	movl   $0x1cc1c,(%esp)
   145f8:	e8 bf c9 ff ff       	call   10fbc <Print>
   145fd:	eb fe                	jmp    145fd <Cond_Wait+0x301>
   145ff:	fb                   	sti    
   14600:	a1 cc 07 02 00       	mov    0x207cc,%eax
   14605:	85 c0                	test   %eax,%eax
   14607:	75 4a                	jne    14653 <Cond_Wait+0x357>
   14609:	c7 04 24 4f 00 00 00 	movl   $0x4f,(%esp)
   14610:	e8 de ca ff ff       	call   110f3 <Set_Current_Attr>
   14615:	a1 d0 07 02 00       	mov    0x207d0,%eax
   1461a:	89 44 24 18          	mov    %eax,0x18(%esp)
   1461e:	8b 45 04             	mov    0x4(%ebp),%eax
   14621:	89 44 24 14          	mov    %eax,0x14(%esp)
   14625:	c7 44 24 10 35 00 00 	movl   $0x35,0x10(%esp)
   1462c:	00 
   1462d:	c7 44 24 0c b4 d8 01 	movl   $0x1d8b4,0xc(%esp)
   14634:	00 
   14635:	c7 44 24 08 cd d9 01 	movl   $0x1d9cd,0x8(%esp)
   1463c:	00 
   1463d:	c7 44 24 04 2d d9 01 	movl   $0x1d92d,0x4(%esp)
   14644:	00 
   14645:	c7 04 24 1c cc 01 00 	movl   $0x1cc1c,(%esp)
   1464c:	e8 6b c9 ff ff       	call   10fbc <Print>
   14651:	eb fe                	jmp    14651 <Cond_Wait+0x355>
   14653:	83 3b 01             	cmpl   $0x1,(%ebx)
   14656:	75 5c                	jne    146b4 <Cond_Wait+0x3b8>
   14658:	8b 43 04             	mov    0x4(%ebx),%eax
   1465b:	3b 05 d0 07 02 00    	cmp    0x207d0,%eax
   14661:	75 51                	jne    146b4 <Cond_Wait+0x3b8>
   14663:	c7 04 24 4f 00 00 00 	movl   $0x4f,(%esp)
   1466a:	e8 84 ca ff ff       	call   110f3 <Set_Current_Attr>
   1466f:	a1 d0 07 02 00       	mov    0x207d0,%eax
   14674:	89 44 24 18          	mov    %eax,0x18(%esp)
   14678:	8b 45 04             	mov    0x4(%ebp),%eax
   1467b:	89 44 24 14          	mov    %eax,0x14(%esp)
   1467f:	c7 44 24 10 38 00 00 	movl   $0x38,0x10(%esp)
   14686:	00 
   14687:	c7 44 24 0c b4 d8 01 	movl   $0x1d8b4,0xc(%esp)
   1468e:	00 
   1468f:	c7 44 24 08 e7 d8 01 	movl   $0x1d8e7,0x8(%esp)
   14696:	00 
   14697:	c7 44 24 04 2d d9 01 	movl   $0x1d92d,0x4(%esp)
   1469e:	00 
   1469f:	c7 04 24 1c cc 01 00 	movl   $0x1cc1c,(%esp)
   146a6:	e8 11 c9 ff ff       	call   10fbc <Print>
   146ab:	eb fe                	jmp    146ab <Cond_Wait+0x3af>
   146ad:	89 d8                	mov    %ebx,%eax
   146af:	e8 d0 fa ff ff       	call   14184 <Mutex_Wait>
   146b4:	83 3b 01             	cmpl   $0x1,(%ebx)
   146b7:	74 f4                	je     146ad <Cond_Wait+0x3b1>
   146b9:	c7 03 01 00 00 00    	movl   $0x1,(%ebx)
   146bf:	a1 d0 07 02 00       	mov    0x207d0,%eax
   146c4:	89 43 04             	mov    %eax,0x4(%ebx)
   146c7:	c7 05 cc 07 02 00 00 	movl   $0x0,0x207cc
   146ce:	00 00 00 
   146d1:	83 c4 24             	add    $0x24,%esp
   146d4:	5b                   	pop    %ebx
   146d5:	5d                   	pop    %ebp
   146d6:	c3                   	ret    

000146d7 <Mutex_Lock>:
   146d7:	55                   	push   %ebp
   146d8:	89 e5                	mov    %esp,%ebp
   146da:	53                   	push   %ebx
   146db:	83 ec 24             	sub    $0x24,%esp
   146de:	8b 5d 08             	mov    0x8(%ebp),%ebx
   146e1:	e8 6b bc ff ff       	call   10351 <Interrupts_Enabled>
   146e6:	84 c0                	test   %al,%al
